


ARM Macro Assembler    Page 1 


    1 00000000         ;/******************************************************
                       ***********************
    2 00000000         ; * @file:    startup_MK60D10.s
    3 00000000         ; * @purpose: CMSIS Cortex-M4 Core Device Startup File f
                       or the
    4 00000000         ; *           MK60D10
    5 00000000         ; * @version: 1.3
    6 00000000         ; * @date:    2012-10-29
    7 00000000         ; *
    8 00000000         ; * Copyright: 1997 - 2012 Freescale Semiconductor, Inc.
                        All Rights Reserved.
    9 00000000         ;*
   10 00000000         ; *------- <<< Use Configuration Wizard in Context Menu 
                       >>> ------------------
   11 00000000         ; *
   12 00000000         ; ******************************************************
                       ***********************/
   13 00000000         
   14 00000000         
   15 00000000         ; <h> Stack Configuration
   16 00000000         ;   <o> Stack Size (in Bytes) <0x0-0xFFFFFFFF:8>
   17 00000000         ; </h>
   18 00000000         ;*******************************************************
                       ***********************
   19 00000000         ;
   20 00000000         ; <o> Stack Size (in Bytes) <0x0-0xFFFFFFFF:8>
   21 00000000         ;
   22 00000000         ;*******************************************************
                       ***********************
   23 00000000 00000400 
                       Stack_Size
                               EQU              0x00000400
   24 00000000         
   25 00000000         ;*******************************************************
                       ***********************
   26 00000000         ;
   27 00000000         ; Allocate space for the stack.
   28 00000000         ;
   29 00000000         ;*******************************************************
                       ***********************
   30 00000000         
   31 00000000                 AREA             STACK, NOINIT, READWRITE, ALIGN
=3
   32 00000000         ;*******************************************************
                       ***********************
   33 00000000         ;     AREA sectionname{,attr}{,attr}... 
   34 00000000         ;ALIGN=<expression> :
   35 00000000         ;By default, ELF sections are aligned on a four-byte bou
                       ndary.
   36 00000000         ;expression can have any integer value from 0 to 31. The
                        section is aligned on 
   37 00000000         ;a 2^(expression-byte boundary). For example, if express
                       ion is 10, the section
   38 00000000         ;is aligned on a 1KB boundary. This is not the same as t
                       he way that the ALIGN 
   39 00000000         ;directive is specified.
   40 00000000         ;
   41 00000000         ;sectionname:
   42 00000000         ;is the name to give to the section. Sections are indepe



ARM Macro Assembler    Page 2 


                       ndent,
   43 00000000         ;named, indivisible chunks of code or data that are mani
                       pulated by the linker. 
   44 00000000         ;You can choose any name for your sections. However, nam
                       es starting with a non-
   45 00000000         ;alphabetic character must be enclosed in bars or a miss
                       ing section name error 
   46 00000000         ;is generated. For example, | 1_DataArea|. Certain names
                        are conventional. For
   47 00000000         ;example, |.text| is used for code sections produced by 
                       the C compiler, or for
   48 00000000         ;code sections otherwise associated with the C library. 
                       
   49 00000000         ;
   50 00000000         ;{attr}NOINIT:
   51 00000000         ;Indicates that the data section is uninitialized, or in
                       itialized to zero. It 
   52 00000000         ;contains only space reservation directives SPACE or DCB
                       , DCD, DCDU, DCQ, DCQU,
   53 00000000         ;DCW, or DCWU with initialized values of zero. You can d
                       ecide at link time 
   54 00000000         ;whether an area is uninitialized or zero-initialized.
   55 00000000         ;*******************************************************
                       ***********************
   56 00000000         Stack_Mem
                               SPACE            Stack_Size
   57 00000400         __initial_sp
   58 00000400         
   59 00000400         
   60 00000400         ; <h> Heap Configuration
   61 00000400         ;   <o>  Heap Size (in Bytes) <0x0-0xFFFFFFFF:8>
   62 00000400         ; </h>
   63 00000400         ;*******************************************************
                       ***********************
   64 00000400         ;
   65 00000400         ; <o> Heap Size (in Bytes) <0x0-0xFFFFFFFF:8>
   66 00000400         ;
   67 00000400         ;*******************************************************
                       ***********************
   68 00000400 00000000 
                       Heap_Size
                               EQU              0x00000000
   69 00000400         
   70 00000400         ;*******************************************************
                       ***********************
   71 00000400         ;
   72 00000400         ; Allocate space for the heap.
   73 00000400         ;
   74 00000400         ;*******************************************************
                       ***********************
   75 00000400         
   76 00000400                 AREA             HEAP, NOINIT, READWRITE, ALIGN=
3
   77 00000000         __heap_base
   78 00000000         Heap_Mem
                               SPACE            Heap_Size
   79 00000000         __heap_limit
   80 00000000         
   81 00000000         



ARM Macro Assembler    Page 3 


   82 00000000         ;*******************************************************
                       ***********************
   83 00000000         ;
   84 00000000         ; Indicate that the code in this file preserves 8-byte a
                       lignment of the stack.
   85 00000000         ;
   86 00000000         ;*******************************************************
                       ***********************
   87 00000000         
   88 00000000                 PRESERVE8
   89 00000000         
   90 00000000         ;*******************************************************
                       ***********************
   91 00000000         ;
   92 00000000         ; Indicate that the code in this file preserves 8-byte a
                       lignment of the stack.
   93 00000000         ;
   94 00000000         ;*******************************************************
                       ***********************
   95 00000000         
   96 00000000                 AREA             RESET, DATA, READONLY
   97 00000000                 THUMB
   98 00000000         
   99 00000000         
  100 00000000         ; Vector Table Mapped to Address 0 at Reset
  101 00000000         
  102 00000000         ;*******************************************************
                       ***********************
  103 00000000         ;
  104 00000000         ; The vector table.
  105 00000000         ;
  106 00000000         ;*******************************************************
                       ***********************
  107 00000000         
  108 00000000                 EXPORT           __Vectors
  109 00000000                 EXPORT           __Vectors_End
  110 00000000                 EXPORT           __Vectors_Size
  111 00000000         
  112 00000000 00000000 
                       __Vectors
                               DCD              __initial_sp ; Top of Stack
  113 00000004 00000000        DCD              Reset_Handler ; Reset Handler
  114 00000008 00000000        DCD              NMI_Handler ; NMI Handler
  115 0000000C 00000000        DCD              HardFault_Handler ; Hard Fault 
                                                            Handler
  116 00000010 00000000        DCD              MemManage_Handler 
                                                            ; MPU Fault Handler
                                                            
  117 00000014 00000000        DCD              BusFault_Handler 
                                                            ; Bus Fault Handler
                                                            
  118 00000018 00000000        DCD              UsageFault_Handler ; Usage Faul
                                                            t Handler
  119 0000001C 00000000        DCD              0           ; Reserved
  120 00000020 00000000        DCD              0           ; Reserved
  121 00000024 00000000        DCD              0           ; Reserved
  122 00000028 00000000        DCD              0           ; Reserved
  123 0000002C 00000000        DCD              SVC_Handler ; SVCall Handler
  124 00000030 00000000        DCD              DebugMon_Handler ; Debug Monito



ARM Macro Assembler    Page 4 


                                                            r Handler
  125 00000034 00000000        DCD              0           ; Reserved
  126 00000038 00000000        DCD              PendSV_Handler ; PendSV Handler
                                                            
  127 0000003C 00000000        DCD              SysTick_Handler 
                                                            ; SysTick Handler
  128 00000040         
  129 00000040         ; External Interrupts
  130 00000040 00000000        DCD              DMA0_IRQHandler ; DMA Channel 0
                                                             Transfer Complete
  131 00000044 00000000        DCD              DMA1_IRQHandler ; DMA Channel 1
                                                             Transfer Complete
  132 00000048 00000000        DCD              DMA2_IRQHandler ; DMA Channel 2
                                                             Transfer Complete
  133 0000004C 00000000        DCD              DMA3_IRQHandler ; DMA Channel 3
                                                             Transfer Complete
  134 00000050 00000000        DCD              DMA4_IRQHandler ; DMA Channel 4
                                                             Transfer Complete
  135 00000054 00000000        DCD              DMA5_IRQHandler ; DMA Channel 5
                                                             Transfer Complete
  136 00000058 00000000        DCD              DMA6_IRQHandler ; DMA Channel 6
                                                             Transfer Complete
  137 0000005C 00000000        DCD              DMA7_IRQHandler ; DMA Channel 7
                                                             Transfer Complete
  138 00000060 00000000        DCD              DMA8_IRQHandler ; DMA Channel 8
                                                             Transfer Complete
  139 00000064 00000000        DCD              DMA9_IRQHandler ; DMA Channel 9
                                                             Transfer Complete
  140 00000068 00000000        DCD              DMA10_IRQHandler ; DMA Channel 
                                                            10 Transfer Complet
                                                            e
  141 0000006C 00000000        DCD              DMA11_IRQHandler ; DMA Channel 
                                                            11 Transfer Complet
                                                            e
  142 00000070 00000000        DCD              DMA12_IRQHandler ; DMA Channel 
                                                            12 Transfer Complet
                                                            e
  143 00000074 00000000        DCD              DMA13_IRQHandler ; DMA Channel 
                                                            13 Transfer Complet
                                                            e
  144 00000078 00000000        DCD              DMA14_IRQHandler ; DMA Channel 
                                                            14 Transfer Complet
                                                            e
  145 0000007C 00000000        DCD              DMA15_IRQHandler ; DMA Channel 
                                                            15 Transfer Complet
                                                            e
  146 00000080 00000000        DCD              DMA_Error_IRQHandler ; DMA Erro
                                                            r Interrupt
  147 00000084 00000000        DCD              MCM_IRQHandler 
                                                            ; Normal Interrupt
  148 00000088 00000000        DCD              FTFL_IRQHandler 
                                                            ; FTFL Interrupt
  149 0000008C 00000000        DCD              Read_Collision_IRQHandler ; Rea
                                                            d Collision Interru
                                                            pt
  150 00000090 00000000        DCD              LVD_LVW_IRQHandler ; Low Voltag
                                                            e Detect, Low Volta
                                                            ge Warning
  151 00000094 00000000        DCD              LLW_IRQHandler ; Low Leakage Wa



ARM Macro Assembler    Page 5 


                                                            keup
  152 00000098 00000000        DCD              Watchdog_IRQHandler 
                                                            ; WDOG Interrupt
  153 0000009C 00000000        DCD              RNG_IRQHandler ; RNGB Interrupt
                                                            
  154 000000A0 00000000        DCD              I2C0_IRQHandler 
                                                            ; I2C0 interrupt
  155 000000A4 00000000        DCD              I2C1_IRQHandler 
                                                            ; I2C1 interrupt
  156 000000A8 00000000        DCD              SPI0_IRQHandler 
                                                            ; SPI0 Interrupt
  157 000000AC 00000000        DCD              SPI1_IRQHandler 
                                                            ; SPI1 Interrupt
  158 000000B0 00000000        DCD              SPI2_IRQHandler 
                                                            ; SPI2 Interrupt
  159 000000B4 00000000        DCD              CAN0_ORed_Message_buffer_IRQHan
dler 
                                                            ; CAN0 OR'd message
                                                             buffers interrupt
  160 000000B8 00000000        DCD              CAN0_Bus_Off_IRQHandler ; CAN0 
                                                            bus off interrupt
  161 000000BC 00000000        DCD              CAN0_Error_IRQHandler ; CAN0 er
                                                            ror interrupt
  162 000000C0 00000000        DCD              CAN0_Tx_Warning_IRQHandler ; CA
                                                            N0 Tx warning inter
                                                            rupt
  163 000000C4 00000000        DCD              CAN0_Rx_Warning_IRQHandler ; CA
                                                            N0 Rx warning inter
                                                            rupt
  164 000000C8 00000000        DCD              CAN0_Wake_Up_IRQHandler ; CAN0 
                                                            wake up interrupt
  165 000000CC 00000000        DCD              I2S0_Tx_IRQHandler ; I2S0 trans
                                                            mit interrupt
  166 000000D0 00000000        DCD              I2S0_Rx_IRQHandler ; I2S0 recei
                                                            ve interrupt
  167 000000D4 00000000        DCD              CAN1_ORed_Message_buffer_IRQHan
dler 
                                                            ; CAN1 OR'd message
                                                             buffers interrupt
  168 000000D8 00000000        DCD              CAN1_Bus_Off_IRQHandler ; CAN1 
                                                            bus off interrupt
  169 000000DC 00000000        DCD              CAN1_Error_IRQHandler ; CAN1 er
                                                            ror interrupt
  170 000000E0 00000000        DCD              CAN1_Tx_Warning_IRQHandler ; CA
                                                            N1 Tx warning inter
                                                            rupt
  171 000000E4 00000000        DCD              CAN1_Rx_Warning_IRQHandler ; CA
                                                            N1 Rx warning inter
                                                            rupt
  172 000000E8 00000000        DCD              CAN1_Wake_Up_IRQHandler ; CAN1 
                                                            wake up interrupt
  173 000000EC 00000000        DCD              Reserved59_IRQHandler ; Reserve
                                                            d interrupt 59
  174 000000F0 00000000        DCD              UART0_LON_IRQHandler ; UART0 LO
                                                            N interrupt
  175 000000F4 00000000        DCD              UART0_RX_TX_IRQHandler ; UART0 
                                                            Receive/Transmit in
                                                            terrupt
  176 000000F8 00000000        DCD              UART0_ERR_IRQHandler ; UART0 Er



ARM Macro Assembler    Page 6 


                                                            ror interrupt
  177 000000FC 00000000        DCD              UART1_RX_TX_IRQHandler ; UART1 
                                                            Receive/Transmit in
                                                            terrupt
  178 00000100 00000000        DCD              UART1_ERR_IRQHandler ; UART1 Er
                                                            ror interrupt
  179 00000104 00000000        DCD              UART2_RX_TX_IRQHandler ; UART2 
                                                            Receive/Transmit in
                                                            terrupt
  180 00000108 00000000        DCD              UART2_ERR_IRQHandler ; UART2 Er
                                                            ror interrupt
  181 0000010C 00000000        DCD              UART3_RX_TX_IRQHandler ; UART3 
                                                            Receive/Transmit in
                                                            terrupt
  182 00000110 00000000        DCD              UART3_ERR_IRQHandler ; UART3 Er
                                                            ror interrupt
  183 00000114 00000000        DCD              UART4_RX_TX_IRQHandler ; UART4 
                                                            Receive/Transmit in
                                                            terrupt
  184 00000118 00000000        DCD              UART4_ERR_IRQHandler ; UART4 Er
                                                            ror interrupt
  185 0000011C 00000000        DCD              UART5_RX_TX_IRQHandler ; UART5 
                                                            Receive/Transmit in
                                                            terrupt
  186 00000120 00000000        DCD              UART5_ERR_IRQHandler ; UART5 Er
                                                            ror interrupt
  187 00000124 00000000        DCD              ADC0_IRQHandler 
                                                            ; ADC0 interrupt
  188 00000128 00000000        DCD              ADC1_IRQHandler 
                                                            ; ADC1 interrupt
  189 0000012C 00000000        DCD              CMP0_IRQHandler 
                                                            ; CMP0 interrupt
  190 00000130 00000000        DCD              CMP1_IRQHandler 
                                                            ; CMP1 interrupt
  191 00000134 00000000        DCD              CMP2_IRQHandler 
                                                            ; CMP2 interrupt
  192 00000138 00000000        DCD              FTM0_IRQHandler ; FTM0 fault, o
                                                            verflow and channel
                                                            s interrupt
  193 0000013C 00000000        DCD              FTM1_IRQHandler ; FTM1 fault, o
                                                            verflow and channel
                                                            s interrupt
  194 00000140 00000000        DCD              FTM2_IRQHandler ; FTM2 fault, o
                                                            verflow and channel
                                                            s interrupt
  195 00000144 00000000        DCD              CMT_IRQHandler ; CMT interrupt
  196 00000148 00000000        DCD              RTC_IRQHandler ; RTC interrupt
  197 0000014C 00000000        DCD              RTC_Seconds_IRQHandler ; RTC se
                                                            conds interrupt
  198 00000150 00000000        DCD              PIT0_IRQHandler ; PIT timer cha
                                                            nnel 0 interrupt
  199 00000154 00000000        DCD              PIT1_IRQHandler ; PIT timer cha
                                                            nnel 1 interrupt
  200 00000158 00000000        DCD              PIT2_IRQHandler ; PIT timer cha
                                                            nnel 2 interrupt
  201 0000015C 00000000        DCD              PIT3_IRQHandler ; PIT timer cha
                                                            nnel 3 interrupt
  202 00000160 00000000        DCD              PDB0_IRQHandler 
                                                            ; PDB0 Interrupt



ARM Macro Assembler    Page 7 


  203 00000164 00000000        DCD              USB0_IRQHandler 
                                                            ; USB0 interrupt
  204 00000168 00000000        DCD              USBDCD_IRQHandler 
                                                            ; USBDCD Interrupt
  205 0000016C 00000000        DCD              ENET_1588_Timer_IRQHandler ; Et
                                                            hernet MAC IEEE 158
                                                            8 Timer Interrupt
  206 00000170 00000000        DCD              ENET_Transmit_IRQHandler ; Ethe
                                                            rnet MAC Transmit I
                                                            nterrupt
  207 00000174 00000000        DCD              ENET_Receive_IRQHandler ; Ether
                                                            net MAC Receive Int
                                                            errupt
  208 00000178 00000000        DCD              ENET_Error_IRQHandler ; Etherne
                                                            t MAC Error and mis
                                                            celaneous Interrupt
                                                            
  209 0000017C 00000000        DCD              Reserved95_IRQHandler ; Reserve
                                                            d interrupt 95
  210 00000180 00000000        DCD              SDHC_IRQHandler 
                                                            ; SDHC Interrupt
  211 00000184 00000000        DCD              DAC0_IRQHandler 
                                                            ; DAC0 interrupt
  212 00000188 00000000        DCD              DAC1_IRQHandler 
                                                            ; DAC1 interrupt
  213 0000018C 00000000        DCD              TSI0_IRQHandler 
                                                            ; TSI0 Interrupt
  214 00000190 00000000        DCD              MCG_IRQHandler ; MCG Interrupt
  215 00000194 00000000        DCD              LPTimer_IRQHandler 
                                                            ; LPTimer interrupt
                                                            
  216 00000198 00000000        DCD              Reserved102_IRQHandler ; Reserv
                                                            ed interrupt 102
  217 0000019C 00000000        DCD              PORTA_IRQHandler 
                                                            ; Port A interrupt
  218 000001A0 00000000        DCD              PORTB_IRQHandler 
                                                            ; Port B interrupt
  219 000001A4 00000000        DCD              PORTC_IRQHandler 
                                                            ; Port C interrupt
  220 000001A8 00000000        DCD              PORTD_IRQHandler 
                                                            ; Port D interrupt
  221 000001AC 00000000        DCD              PORTE_IRQHandler 
                                                            ; Port E interrupt
  222 000001B0 00000000        DCD              Reserved108_IRQHandler ; Reserv
                                                            ed interrupt 108
  223 000001B4 00000000        DCD              Reserved109_IRQHandler ; Reserv
                                                            ed interrupt 109
  224 000001B8 00000000        DCD              SWI_IRQHandler ; Software inter
                                                            rupt
  225 000001BC 00000000        DCD              Reserved111_IRQHandler ; Reserv
                                                            ed interrupt 111
  226 000001C0 00000000        DCD              Reserved112_IRQHandler ; Reserv
                                                            ed interrupt 112
  227 000001C4 00000000        DCD              Reserved113_IRQHandler ; Reserv
                                                            ed interrupt 113
  228 000001C8 00000000        DCD              Reserved114_IRQHandler ; Reserv
                                                            ed interrupt 114
  229 000001CC 00000000        DCD              Reserved115_IRQHandler ; Reserv
                                                            ed interrupt 115



ARM Macro Assembler    Page 8 


  230 000001D0 00000000        DCD              Reserved116_IRQHandler ; Reserv
                                                            ed interrupt 116
  231 000001D4 00000000        DCD              Reserved117_IRQHandler ; Reserv
                                                            ed interrupt 117
  232 000001D8 00000000        DCD              Reserved118_IRQHandler ; Reserv
                                                            ed interrupt 118
  233 000001DC 00000000        DCD              Reserved119_IRQHandler ; Reserv
                                                            ed interrupt 119
  234 000001E0 00000000        DCD              DefaultISR  ; 120
  235 000001E4 00000000        DCD              DefaultISR  ; 121
  236 000001E8 00000000        DCD              DefaultISR  ; 122
  237 000001EC 00000000        DCD              DefaultISR  ; 123
  238 000001F0 00000000        DCD              DefaultISR  ; 124
  239 000001F4 00000000        DCD              DefaultISR  ; 125
  240 000001F8 00000000        DCD              DefaultISR  ; 126
  241 000001FC 00000000        DCD              DefaultISR  ; 127
  242 00000200 00000000        DCD              DefaultISR  ; 128
  243 00000204 00000000        DCD              DefaultISR  ; 129
  244 00000208 00000000        DCD              DefaultISR  ; 130
  245 0000020C 00000000        DCD              DefaultISR  ; 131
  246 00000210 00000000        DCD              DefaultISR  ; 132
  247 00000214 00000000        DCD              DefaultISR  ; 133
  248 00000218 00000000        DCD              DefaultISR  ; 134
  249 0000021C 00000000        DCD              DefaultISR  ; 135
  250 00000220 00000000        DCD              DefaultISR  ; 136
  251 00000224 00000000        DCD              DefaultISR  ; 137
  252 00000228 00000000        DCD              DefaultISR  ; 138
  253 0000022C 00000000        DCD              DefaultISR  ; 139
  254 00000230 00000000        DCD              DefaultISR  ; 140
  255 00000234 00000000        DCD              DefaultISR  ; 141
  256 00000238 00000000        DCD              DefaultISR  ; 142
  257 0000023C 00000000        DCD              DefaultISR  ; 143
  258 00000240 00000000        DCD              DefaultISR  ; 144
  259 00000244 00000000        DCD              DefaultISR  ; 145
  260 00000248 00000000        DCD              DefaultISR  ; 146
  261 0000024C 00000000        DCD              DefaultISR  ; 147
  262 00000250 00000000        DCD              DefaultISR  ; 148
  263 00000254 00000000        DCD              DefaultISR  ; 149
  264 00000258 00000000        DCD              DefaultISR  ; 150
  265 0000025C 00000000        DCD              DefaultISR  ; 151
  266 00000260 00000000        DCD              DefaultISR  ; 152
  267 00000264 00000000        DCD              DefaultISR  ; 153
  268 00000268 00000000        DCD              DefaultISR  ; 154
  269 0000026C 00000000        DCD              DefaultISR  ; 155
  270 00000270 00000000        DCD              DefaultISR  ; 156
  271 00000274 00000000        DCD              DefaultISR  ; 157
  272 00000278 00000000        DCD              DefaultISR  ; 158
  273 0000027C 00000000        DCD              DefaultISR  ; 159
  274 00000280 00000000        DCD              DefaultISR  ; 160
  275 00000284 00000000        DCD              DefaultISR  ; 161
  276 00000288 00000000        DCD              DefaultISR  ; 162
  277 0000028C 00000000        DCD              DefaultISR  ; 163
  278 00000290 00000000        DCD              DefaultISR  ; 164
  279 00000294 00000000        DCD              DefaultISR  ; 165
  280 00000298 00000000        DCD              DefaultISR  ; 166
  281 0000029C 00000000        DCD              DefaultISR  ; 167
  282 000002A0 00000000        DCD              DefaultISR  ; 168
  283 000002A4 00000000        DCD              DefaultISR  ; 169
  284 000002A8 00000000        DCD              DefaultISR  ; 170



ARM Macro Assembler    Page 9 


  285 000002AC 00000000        DCD              DefaultISR  ; 171
  286 000002B0 00000000        DCD              DefaultISR  ; 172
  287 000002B4 00000000        DCD              DefaultISR  ; 173
  288 000002B8 00000000        DCD              DefaultISR  ; 174
  289 000002BC 00000000        DCD              DefaultISR  ; 175
  290 000002C0 00000000        DCD              DefaultISR  ; 176
  291 000002C4 00000000        DCD              DefaultISR  ; 177
  292 000002C8 00000000        DCD              DefaultISR  ; 178
  293 000002CC 00000000        DCD              DefaultISR  ; 179
  294 000002D0 00000000        DCD              DefaultISR  ; 180
  295 000002D4 00000000        DCD              DefaultISR  ; 181
  296 000002D8 00000000        DCD              DefaultISR  ; 182
  297 000002DC 00000000        DCD              DefaultISR  ; 183
  298 000002E0 00000000        DCD              DefaultISR  ; 184
  299 000002E4 00000000        DCD              DefaultISR  ; 185
  300 000002E8 00000000        DCD              DefaultISR  ; 186
  301 000002EC 00000000        DCD              DefaultISR  ; 187
  302 000002F0 00000000        DCD              DefaultISR  ; 188
  303 000002F4 00000000        DCD              DefaultISR  ; 189
  304 000002F8 00000000        DCD              DefaultISR  ; 190
  305 000002FC 00000000        DCD              DefaultISR  ; 191
  306 00000300 00000000        DCD              DefaultISR  ; 192
  307 00000304 00000000        DCD              DefaultISR  ; 193
  308 00000308 00000000        DCD              DefaultISR  ; 194
  309 0000030C 00000000        DCD              DefaultISR  ; 195
  310 00000310 00000000        DCD              DefaultISR  ; 196
  311 00000314 00000000        DCD              DefaultISR  ; 197
  312 00000318 00000000        DCD              DefaultISR  ; 198
  313 0000031C 00000000        DCD              DefaultISR  ; 199
  314 00000320 00000000        DCD              DefaultISR  ; 200
  315 00000324 00000000        DCD              DefaultISR  ; 201
  316 00000328 00000000        DCD              DefaultISR  ; 202
  317 0000032C 00000000        DCD              DefaultISR  ; 203
  318 00000330 00000000        DCD              DefaultISR  ; 204
  319 00000334 00000000        DCD              DefaultISR  ; 205
  320 00000338 00000000        DCD              DefaultISR  ; 206
  321 0000033C 00000000        DCD              DefaultISR  ; 207
  322 00000340 00000000        DCD              DefaultISR  ; 208
  323 00000344 00000000        DCD              DefaultISR  ; 209
  324 00000348 00000000        DCD              DefaultISR  ; 210
  325 0000034C 00000000        DCD              DefaultISR  ; 211
  326 00000350 00000000        DCD              DefaultISR  ; 212
  327 00000354 00000000        DCD              DefaultISR  ; 213
  328 00000358 00000000        DCD              DefaultISR  ; 214
  329 0000035C 00000000        DCD              DefaultISR  ; 215
  330 00000360 00000000        DCD              DefaultISR  ; 216
  331 00000364 00000000        DCD              DefaultISR  ; 217
  332 00000368 00000000        DCD              DefaultISR  ; 218
  333 0000036C 00000000        DCD              DefaultISR  ; 219
  334 00000370 00000000        DCD              DefaultISR  ; 220
  335 00000374 00000000        DCD              DefaultISR  ; 221
  336 00000378 00000000        DCD              DefaultISR  ; 222
  337 0000037C 00000000        DCD              DefaultISR  ; 223
  338 00000380 00000000        DCD              DefaultISR  ; 224
  339 00000384 00000000        DCD              DefaultISR  ; 225
  340 00000388 00000000        DCD              DefaultISR  ; 226
  341 0000038C 00000000        DCD              DefaultISR  ; 227
  342 00000390 00000000        DCD              DefaultISR  ; 228
  343 00000394 00000000        DCD              DefaultISR  ; 229



ARM Macro Assembler    Page 10 


  344 00000398 00000000        DCD              DefaultISR  ; 230
  345 0000039C 00000000        DCD              DefaultISR  ; 231
  346 000003A0 00000000        DCD              DefaultISR  ; 232
  347 000003A4 00000000        DCD              DefaultISR  ; 233
  348 000003A8 00000000        DCD              DefaultISR  ; 234
  349 000003AC 00000000        DCD              DefaultISR  ; 235
  350 000003B0 00000000        DCD              DefaultISR  ; 236
  351 000003B4 00000000        DCD              DefaultISR  ; 237
  352 000003B8 00000000        DCD              DefaultISR  ; 238
  353 000003BC 00000000        DCD              DefaultISR  ; 239
  354 000003C0 00000000        DCD              DefaultISR  ; 240
  355 000003C4 00000000        DCD              DefaultISR  ; 241
  356 000003C8 00000000        DCD              DefaultISR  ; 242
  357 000003CC 00000000        DCD              DefaultISR  ; 243
  358 000003D0 00000000        DCD              DefaultISR  ; 244
  359 000003D4 00000000        DCD              DefaultISR  ; 245
  360 000003D8 00000000        DCD              DefaultISR  ; 246
  361 000003DC 00000000        DCD              DefaultISR  ; 247
  362 000003E0 00000000        DCD              DefaultISR  ; 248
  363 000003E4 00000000        DCD              DefaultISR  ; 249
  364 000003E8 00000000        DCD              DefaultISR  ; 250
  365 000003EC 00000000        DCD              DefaultISR  ; 251
  366 000003F0 00000000        DCD              DefaultISR  ; 252
  367 000003F4 00000000        DCD              DefaultISR  ; 253
  368 000003F8 00000000        DCD              DefaultISR  ; 254
  369 000003FC 00000000        DCD              DefaultISR  ; 255
  370 00000400         __Vectors_End
  371 00000400         
  372 00000400 00000400 
                       __Vectors_Size
                               EQU              __Vectors_End - __Vectors
  373 00000400         
  374 00000400         ; <h> Flash Configuration
  375 00000400         ;   <i> 16-byte flash configuration field that stores de
                       fault protection settings (loaded on reset)
  376 00000400         ;   <i> and security information that allows the MCU to 
                       restrict acces to the FTFL module.
  377 00000400         ;   <h> Backdoor Comparison Key
  378 00000400         ;     <o0>  Backdoor Key 0  <0x0-0xFF:2>
  379 00000400         ;     <o1>  Backdoor Key 1  <0x0-0xFF:2>
  380 00000400         ;     <o2>  Backdoor Key 2  <0x0-0xFF:2>
  381 00000400         ;     <o3>  Backdoor Key 3  <0x0-0xFF:2>
  382 00000400         ;     <o4>  Backdoor Key 4  <0x0-0xFF:2>
  383 00000400         ;     <o5>  Backdoor Key 5  <0x0-0xFF:2>
  384 00000400         ;     <o6>  Backdoor Key 6  <0x0-0xFF:2>
  385 00000400         ;     <o7>  Backdoor Key 7  <0x0-0xFF:2>
  386 00000400 000000FF 
                       BackDoorK0
                               EQU              0xFF
  387 00000400 000000FF 
                       BackDoorK1
                               EQU              0xFF
  388 00000400 000000FF 
                       BackDoorK2
                               EQU              0xFF
  389 00000400 000000FF 
                       BackDoorK3
                               EQU              0xFF
  390 00000400 000000FF 



ARM Macro Assembler    Page 11 


                       BackDoorK4
                               EQU              0xFF
  391 00000400 000000FF 
                       BackDoorK5
                               EQU              0xFF
  392 00000400 000000FF 
                       BackDoorK6
                               EQU              0xFF
  393 00000400 000000FF 
                       BackDoorK7
                               EQU              0xFF
  394 00000400         ;   </h>
  395 00000400         ;   <h> Program flash protection bytes (FPROT)
  396 00000400         ;     <i> Each program flash region can be protected fro
                       m program and erase operation by setting the associated 
                       PROT bit.
  397 00000400         ;     <i> Each bit protects a 1/32 region of the program
                        flash memory.
  398 00000400         ;     <h> FPROT0
  399 00000400         ;       <i> Program flash protection bytes
  400 00000400         ;       <i> 1/32 - 8/32 region
  401 00000400         ;       <o.0>   FPROT0.0
  402 00000400         ;       <o.1>   FPROT0.1
  403 00000400         ;       <o.2>   FPROT0.2
  404 00000400         ;       <o.3>   FPROT0.3
  405 00000400         ;       <o.4>   FPROT0.4
  406 00000400         ;       <o.5>   FPROT0.5
  407 00000400         ;       <o.6>   FPROT0.6
  408 00000400         ;       <o.7>   FPROT0.7
  409 00000400 00000000 
                       nFPROT0 EQU              0x00
  410 00000400 000000FF 
                       FPROT0  EQU              nFPROT0:EOR:0xFF
  411 00000400         ;     </h>
  412 00000400         ;     <h> FPROT1
  413 00000400         ;       <i> Program Flash Region Protect Register 1
  414 00000400         ;       <i> 9/32 - 16/32 region
  415 00000400         ;       <o.0>   FPROT1.0
  416 00000400         ;       <o.1>   FPROT1.1
  417 00000400         ;       <o.2>   FPROT1.2
  418 00000400         ;       <o.3>   FPROT1.3
  419 00000400         ;       <o.4>   FPROT1.4
  420 00000400         ;       <o.5>   FPROT1.5
  421 00000400         ;       <o.6>   FPROT1.6
  422 00000400         ;       <o.7>   FPROT1.7
  423 00000400 00000000 
                       nFPROT1 EQU              0x00
  424 00000400 000000FF 
                       FPROT1  EQU              nFPROT1:EOR:0xFF
  425 00000400         ;     </h>
  426 00000400         ;     <h> FPROT2
  427 00000400         ;       <i> Program Flash Region Protect Register 2
  428 00000400         ;       <i> 17/32 - 24/32 region
  429 00000400         ;       <o.0>   FPROT2.0
  430 00000400         ;       <o.1>   FPROT2.1
  431 00000400         ;       <o.2>   FPROT2.2
  432 00000400         ;       <o.3>   FPROT2.3
  433 00000400         ;       <o.4>   FPROT2.4
  434 00000400         ;       <o.5>   FPROT2.5



ARM Macro Assembler    Page 12 


  435 00000400         ;       <o.6>   FPROT2.6
  436 00000400         ;       <o.7>   FPROT2.7
  437 00000400 00000000 
                       nFPROT2 EQU              0x00
  438 00000400 000000FF 
                       FPROT2  EQU              nFPROT2:EOR:0xFF
  439 00000400         ;     </h>
  440 00000400         ;     <h> FPROT3
  441 00000400         ;       <i> Program Flash Region Protect Register 3
  442 00000400         ;       <i> 25/32 - 32/32 region
  443 00000400         ;       <o.0>   FPROT3.0
  444 00000400         ;       <o.1>   FPROT3.1
  445 00000400         ;       <o.2>   FPROT3.2
  446 00000400         ;       <o.3>   FPROT3.3
  447 00000400         ;       <o.4>   FPROT3.4
  448 00000400         ;       <o.5>   FPROT3.5
  449 00000400         ;       <o.6>   FPROT3.6
  450 00000400         ;       <o.7>   FPROT3.7
  451 00000400 00000000 
                       nFPROT3 EQU              0x00
  452 00000400 000000FF 
                       FPROT3  EQU              nFPROT3:EOR:0xFF
  453 00000400         ;     </h>
  454 00000400         ;   </h>
  455 00000400         ;   <h> Data flash protection byte (FDPROT)
  456 00000400         ;     <i> Each bit protects a 1/8 region of the data fla
                       sh memory.
  457 00000400         ;     <i> (Program flash only devices: Reserved)
  458 00000400         ;     <o.0>   FDPROT.0
  459 00000400         ;     <o.1>   FDPROT.1
  460 00000400         ;     <o.2>   FDPROT.2
  461 00000400         ;     <o.3>   FDPROT.3
  462 00000400         ;     <o.4>   FDPROT.4
  463 00000400         ;     <o.5>   FDPROT.5
  464 00000400         ;     <o.6>   FDPROT.6
  465 00000400         ;     <o.7>   FDPROT.7
  466 00000400 00000000 
                       nFDPROT EQU              0x00
  467 00000400 000000FF 
                       FDPROT  EQU              nFDPROT:EOR:0xFF
  468 00000400         ;   </h>
  469 00000400         ;   <h> EEPROM protection byte (FEPROT)
  470 00000400         ;     <i> FlexNVM devices: Each bit protects a 1/8 regio
                       n of the EEPROM.
  471 00000400         ;     <i> (Program flash only devices: Reserved)
  472 00000400         ;     <o.0>   FEPROT.0
  473 00000400         ;     <o.1>   FEPROT.1
  474 00000400         ;     <o.2>   FEPROT.2
  475 00000400         ;     <o.3>   FEPROT.3
  476 00000400         ;     <o.4>   FEPROT.4
  477 00000400         ;     <o.5>   FEPROT.5
  478 00000400         ;     <o.6>   FEPROT.6
  479 00000400         ;     <o.7>   FEPROT.7
  480 00000400 00000000 
                       nFEPROT EQU              0x00
  481 00000400 000000FF 
                       FEPROT  EQU              nFEPROT:EOR:0xFF
  482 00000400         ;   </h>
  483 00000400         ;   <h> Flash nonvolatile option byte (FOPT)



ARM Macro Assembler    Page 13 


  484 00000400         ;     <i> Allows the user to customize the operation of 
                       the MCU at boot time.
  485 00000400         ;     <o.0>  LPBOOT
  486 00000400         ;       <0=> Low-power boot
  487 00000400         ;       <1=> normal boot
  488 00000400         ;     <o.1>  EZPORT_DIS
  489 00000400         ;       <0=> EzPort operation is enabled
  490 00000400         ;       <1=> EzPort operation is disabled
  491 00000400 000000FF 
                       FOPT    EQU              0xFF
  492 00000400         ;   </h>
  493 00000400         ;   <h> Flash security byte (FSEC)
  494 00000400         ;     <i> WARNING: If SEC field is configured as "MCU se
                       curity status is secure" and MEEN field is configured as
                        "Mass erase is disabled",
  495 00000400         ;     <i> MCU's security status cannot be set back to un
                       secure state since Mass erase via the debugger is blocke
                       d !!!
  496 00000400         ;     <o.0..1> SEC
  497 00000400         ;       <2=> MCU security status is unsecure
  498 00000400         ;       <3=> MCU security status is secure
  499 00000400         ;         <i> Flash Security
  500 00000400         ;         <i> This bits define the security state of the
                        MCU.
  501 00000400         ;     <o.2..3> FSLACC
  502 00000400         ;       <2=> Freescale factory access denied
  503 00000400         ;       <3=> Freescale factory access granted
  504 00000400         ;         <i> Freescale Failure Analysis Access Code
  505 00000400         ;         <i> This bits define the security state of the
                        MCU.
  506 00000400         ;     <o.4..5> MEEN
  507 00000400         ;       <2=> Mass erase is disabled
  508 00000400         ;       <3=> Mass erase is enabled
  509 00000400         ;         <i> Mass Erase Enable Bits
  510 00000400         ;         <i> Enables and disables mass erase capability
                        of the FTFL module
  511 00000400         ;     <o.6..7> KEYEN
  512 00000400         ;       <2=> Backdoor key access enabled
  513 00000400         ;       <3=> Backdoor key access disabled
  514 00000400         ;         <i> Backdoor key Security Enable
  515 00000400         ;         <i> These bits enable and disable backdoor key
                        access to the FTFL module.
  516 00000400 000000FE 
                       FSEC    EQU              0xFE
  517 00000400         ;   </h>
  518 00000400         ; </h>
  519 00000400                 IF               :LNOT::DEF:RAM_TARGET
  520 00000400                 AREA             |.ARM.__at_0x400|, CODE, READON
LY
  521 00000000 FF FF FF 
              FF               DCB              BackDoorK0, BackDoorK1, BackDoo
rK2, BackDoorK3
  522 00000004 FF FF FF 
              FF               DCB              BackDoorK4, BackDoorK5, BackDoo
rK6, BackDoorK7
  523 00000008 FF FF FF 
              FF               DCB              FPROT0,     FPROT1,     FPROT2,
     FPROT3
  524 0000000C FE FF FF 



ARM Macro Assembler    Page 14 


              FF               DCB              FSEC,       FOPT,       FEPROT,
     FDPROT
  525 00000010                 ENDIF
  526 00000010         
  527 00000010         ;*******************************************************
                       ***********************
  528 00000010         ;
  529 00000010         ; Some code in the normal code section for initializing 
                       the heap and stack.
  530 00000010         ;
  531 00000010         ;*******************************************************
                       ***********************
  532 00000010                 AREA             |.text|, CODE, READONLY
  533 00000000         
  534 00000000         
  535 00000000         ; Reset Handler
  536 00000000         
  537 00000000         Reset_Handler
                               PROC
  538 00000000                 EXPORT           Reset_Handler                 [
WEAK]
  539 00000000                 IMPORT           SystemInit
  540 00000000                 IMPORT           __main
  541 00000000 480F            LDR              R0, =SystemInit
  542 00000002 4780            BLX              R0
  543 00000004 480F            LDR              R0, =__main
  544 00000006 4700            BX               R0
  545 00000008                 ENDP
  546 00000008         
  547 00000008         
  548 00000008         ; Dummy Exception Handlers (infinite loops which can be 
                       modified)
  549 00000008         
  550 00000008         NMI_Handler
                               PROC
  551 00000008                 EXPORT           NMI_Handler                   [
WEAK]
  552 00000008 E7FE            B                .
  553 0000000A                 ENDP
  555 0000000A         HardFault_Handler
                               PROC
  556 0000000A                 EXPORT           HardFault_Handler             [
WEAK]
  557 0000000A E7FE            B                .
  558 0000000C                 ENDP
  560 0000000C         MemManage_Handler
                               PROC
  561 0000000C                 EXPORT           MemManage_Handler             [
WEAK]
  562 0000000C E7FE            B                .
  563 0000000E                 ENDP
  565 0000000E         BusFault_Handler
                               PROC
  566 0000000E                 EXPORT           BusFault_Handler              [
WEAK]
  567 0000000E E7FE            B                .
  568 00000010                 ENDP
  570 00000010         UsageFault_Handler
                               PROC



ARM Macro Assembler    Page 15 


  571 00000010                 EXPORT           UsageFault_Handler            [
WEAK]
  572 00000010 E7FE            B                .
  573 00000012                 ENDP
  574 00000012         SVC_Handler
                               PROC
  575 00000012                 EXPORT           SVC_Handler                   [
WEAK]
  576 00000012 E7FE            B                .
  577 00000014                 ENDP
  579 00000014         DebugMon_Handler
                               PROC
  580 00000014                 EXPORT           DebugMon_Handler              [
WEAK]
  581 00000014 E7FE            B                .
  582 00000016                 ENDP
  583 00000016         PendSV_Handler
                               PROC
  584 00000016                 EXPORT           PendSV_Handler                [
WEAK]
  585 00000016 E7FE            B                .
  586 00000018                 ENDP
  587 00000018         SysTick_Handler
                               PROC
  588 00000018                 EXPORT           SysTick_Handler               [
WEAK]
  589 00000018 E7FE            B                .
  590 0000001A                 ENDP
  591 0000001A         
  592 0000001A         Default_Handler
                               PROC
  593 0000001A                 EXPORT           DMA0_IRQHandler          [WEAK]
  594 0000001A                 EXPORT           DMA1_IRQHandler          [WEAK]
  595 0000001A                 EXPORT           DMA2_IRQHandler          [WEAK]
  596 0000001A                 EXPORT           DMA3_IRQHandler          [WEAK]
  597 0000001A                 EXPORT           DMA4_IRQHandler          [WEAK]
  598 0000001A                 EXPORT           DMA5_IRQHandler          [WEAK]
  599 0000001A                 EXPORT           DMA6_IRQHandler          [WEAK]
  600 0000001A                 EXPORT           DMA7_IRQHandler          [WEAK]
  601 0000001A                 EXPORT           DMA8_IRQHandler          [WEAK]
  602 0000001A                 EXPORT           DMA9_IRQHandler          [WEAK]
  603 0000001A                 EXPORT           DMA10_IRQHandler          [WEAK
]
  604 0000001A                 EXPORT           DMA11_IRQHandler          [WEAK
]
  605 0000001A                 EXPORT           DMA12_IRQHandler          [WEAK
]
  606 0000001A                 EXPORT           DMA13_IRQHandler          [WEAK
]
  607 0000001A                 EXPORT           DMA14_IRQHandler          [WEAK
]
  608 0000001A                 EXPORT           DMA15_IRQHandler          [WEAK
]
  609 0000001A                 EXPORT           DMA_Error_IRQHandler         [W
EAK]
  610 0000001A                 EXPORT           MCM_IRQHandler           [WEAK]
  611 0000001A                 EXPORT           FTFL_IRQHandler          [WEAK]
  612 0000001A                 EXPORT           Read_Collision_IRQHandler      
  [WEAK]



ARM Macro Assembler    Page 16 


  613 0000001A                 EXPORT           LVD_LVW_IRQHandler          [WE
AK]
  614 0000001A                 EXPORT           LLW_IRQHandler           [WEAK]
  615 0000001A                 EXPORT           Watchdog_IRQHandler         [WE
AK]
  616 0000001A                 EXPORT           RNG_IRQHandler           [WEAK]
  617 0000001A                 EXPORT           I2C0_IRQHandler          [WEAK]
  618 0000001A                 EXPORT           I2C1_IRQHandler          [WEAK]
  619 0000001A                 EXPORT           SPI0_IRQHandler          [WEAK]
  620 0000001A                 EXPORT           SPI1_IRQHandler          [WEAK]
  621 0000001A                 EXPORT           SPI2_IRQHandler          [WEAK]
  622 0000001A                 EXPORT           CAN0_ORed_Message_buffer_IRQHan
dler     [WEAK]
  623 0000001A                 EXPORT           CAN0_Bus_Off_IRQHandler        
[WEAK]
  624 0000001A                 EXPORT           CAN0_Error_IRQHandler         [
WEAK]
  625 0000001A                 EXPORT           CAN0_Tx_Warning_IRQHandler     
   [WEAK]
  626 0000001A                 EXPORT           CAN0_Rx_Warning_IRQHandler     
   [WEAK]
  627 0000001A                 EXPORT           CAN0_Wake_Up_IRQHandler        
[WEAK]
  628 0000001A                 EXPORT           I2S0_Tx_IRQHandler          [WE
AK]
  629 0000001A                 EXPORT           I2S0_Rx_IRQHandler          [WE
AK]
  630 0000001A                 EXPORT           CAN1_ORed_Message_buffer_IRQHan
dler     [WEAK]
  631 0000001A                 EXPORT           CAN1_Bus_Off_IRQHandler        
[WEAK]
  632 0000001A                 EXPORT           CAN1_Error_IRQHandler         [
WEAK]
  633 0000001A                 EXPORT           CAN1_Tx_Warning_IRQHandler     
   [WEAK]
  634 0000001A                 EXPORT           CAN1_Rx_Warning_IRQHandler     
   [WEAK]
  635 0000001A                 EXPORT           CAN1_Wake_Up_IRQHandler        
[WEAK]
  636 0000001A                 EXPORT           Reserved59_IRQHandler         [
WEAK]
  637 0000001A                 EXPORT           UART0_LON_IRQHandler         [W
EAK]
  638 0000001A                 EXPORT           UART0_RX_TX_IRQHandler         
[WEAK]
  639 0000001A                 EXPORT           UART0_ERR_IRQHandler         [W
EAK]
  640 0000001A                 EXPORT           UART1_RX_TX_IRQHandler         
[WEAK]
  641 0000001A                 EXPORT           UART1_ERR_IRQHandler         [W
EAK]
  642 0000001A                 EXPORT           UART2_RX_TX_IRQHandler         
[WEAK]
  643 0000001A                 EXPORT           UART2_ERR_IRQHandler         [W
EAK]
  644 0000001A                 EXPORT           UART3_RX_TX_IRQHandler         
[WEAK]
  645 0000001A                 EXPORT           UART3_ERR_IRQHandler         [W
EAK]



ARM Macro Assembler    Page 17 


  646 0000001A                 EXPORT           UART4_RX_TX_IRQHandler         
[WEAK]
  647 0000001A                 EXPORT           UART4_ERR_IRQHandler         [W
EAK]
  648 0000001A                 EXPORT           UART5_RX_TX_IRQHandler         
[WEAK]
  649 0000001A                 EXPORT           UART5_ERR_IRQHandler         [W
EAK]
  650 0000001A                 EXPORT           ADC0_IRQHandler          [WEAK]
  651 0000001A                 EXPORT           ADC1_IRQHandler          [WEAK]
  652 0000001A                 EXPORT           CMP0_IRQHandler          [WEAK]
  653 0000001A                 EXPORT           CMP1_IRQHandler          [WEAK]
  654 0000001A                 EXPORT           CMP2_IRQHandler          [WEAK]
  655 0000001A                 EXPORT           FTM0_IRQHandler          [WEAK]
  656 0000001A                 EXPORT           FTM1_IRQHandler          [WEAK]
  657 0000001A                 EXPORT           FTM2_IRQHandler          [WEAK]
  658 0000001A                 EXPORT           CMT_IRQHandler           [WEAK]
  659 0000001A                 EXPORT           RTC_IRQHandler           [WEAK]
  660 0000001A                 EXPORT           RTC_Seconds_IRQHandler         
[WEAK]
  661 0000001A                 EXPORT           PIT0_IRQHandler          [WEAK]
  662 0000001A                 EXPORT           PIT1_IRQHandler          [WEAK]
  663 0000001A                 EXPORT           PIT2_IRQHandler          [WEAK]
  664 0000001A                 EXPORT           PIT3_IRQHandler          [WEAK]
  665 0000001A                 EXPORT           PDB0_IRQHandler          [WEAK]
  666 0000001A                 EXPORT           USB0_IRQHandler          [WEAK]
  667 0000001A                 EXPORT           USBDCD_IRQHandler          [WEA
K]
  668 0000001A                 EXPORT           ENET_1588_Timer_IRQHandler     
   [WEAK]
  669 0000001A                 EXPORT           ENET_Transmit_IRQHandler       
 [WEAK]
  670 0000001A                 EXPORT           ENET_Receive_IRQHandler        
[WEAK]
  671 0000001A                 EXPORT           ENET_Error_IRQHandler         [
WEAK]
  672 0000001A                 EXPORT           Reserved95_IRQHandler         [
WEAK]
  673 0000001A                 EXPORT           SDHC_IRQHandler          [WEAK]
  674 0000001A                 EXPORT           DAC0_IRQHandler          [WEAK]
  675 0000001A                 EXPORT           DAC1_IRQHandler          [WEAK]
  676 0000001A                 EXPORT           TSI0_IRQHandler          [WEAK]
  677 0000001A                 EXPORT           MCG_IRQHandler           [WEAK]
  678 0000001A                 EXPORT           LPTimer_IRQHandler          [WE
AK]
  679 0000001A                 EXPORT           Reserved102_IRQHandler         
[WEAK]
  680 0000001A                 EXPORT           PORTA_IRQHandler          [WEAK
]
  681 0000001A                 EXPORT           PORTB_IRQHandler          [WEAK
]
  682 0000001A                 EXPORT           PORTC_IRQHandler          [WEAK
]
  683 0000001A                 EXPORT           PORTD_IRQHandler          [WEAK
]
  684 0000001A                 EXPORT           PORTE_IRQHandler          [WEAK
]
  685 0000001A                 EXPORT           Reserved108_IRQHandler         
[WEAK]



ARM Macro Assembler    Page 18 


  686 0000001A                 EXPORT           Reserved109_IRQHandler         
[WEAK]
  687 0000001A                 EXPORT           SWI_IRQHandler           [WEAK]
  688 0000001A                 EXPORT           Reserved111_IRQHandler         
[WEAK]
  689 0000001A                 EXPORT           Reserved112_IRQHandler         
[WEAK]
  690 0000001A                 EXPORT           Reserved113_IRQHandler         
[WEAK]
  691 0000001A                 EXPORT           Reserved114_IRQHandler         
[WEAK]
  692 0000001A                 EXPORT           Reserved115_IRQHandler         
[WEAK]
  693 0000001A                 EXPORT           Reserved116_IRQHandler         
[WEAK]
  694 0000001A                 EXPORT           Reserved117_IRQHandler         
[WEAK]
  695 0000001A                 EXPORT           Reserved118_IRQHandler         
[WEAK]
  696 0000001A                 EXPORT           Reserved119_IRQHandler         
[WEAK]
  697 0000001A                 EXPORT           DefaultISR                     
   [WEAK]
  698 0000001A         
  699 0000001A         DMA0_IRQHandler
  700 0000001A         DMA1_IRQHandler
  701 0000001A         DMA2_IRQHandler
  702 0000001A         DMA3_IRQHandler
  703 0000001A         DMA4_IRQHandler
  704 0000001A         DMA5_IRQHandler
  705 0000001A         DMA6_IRQHandler
  706 0000001A         DMA7_IRQHandler
  707 0000001A         DMA8_IRQHandler
  708 0000001A         DMA9_IRQHandler
  709 0000001A         DMA10_IRQHandler
  710 0000001A         DMA11_IRQHandler
  711 0000001A         DMA12_IRQHandler
  712 0000001A         DMA13_IRQHandler
  713 0000001A         DMA14_IRQHandler
  714 0000001A         DMA15_IRQHandler
  715 0000001A         DMA_Error_IRQHandler
  716 0000001A         MCM_IRQHandler
  717 0000001A         FTFL_IRQHandler
  718 0000001A         Read_Collision_IRQHandler
  719 0000001A         LVD_LVW_IRQHandler
  720 0000001A         LLW_IRQHandler
  721 0000001A         Watchdog_IRQHandler
  722 0000001A         RNG_IRQHandler
  723 0000001A         I2C0_IRQHandler
  724 0000001A         I2C1_IRQHandler
  725 0000001A         SPI0_IRQHandler
  726 0000001A         SPI1_IRQHandler
  727 0000001A         SPI2_IRQHandler
  728 0000001A         CAN0_ORed_Message_buffer_IRQHandler
  729 0000001A         CAN0_Bus_Off_IRQHandler
  730 0000001A         CAN0_Error_IRQHandler
  731 0000001A         CAN0_Tx_Warning_IRQHandler
  732 0000001A         CAN0_Rx_Warning_IRQHandler
  733 0000001A         CAN0_Wake_Up_IRQHandler



ARM Macro Assembler    Page 19 


  734 0000001A         I2S0_Tx_IRQHandler
  735 0000001A         I2S0_Rx_IRQHandler
  736 0000001A         CAN1_ORed_Message_buffer_IRQHandler
  737 0000001A         CAN1_Bus_Off_IRQHandler
  738 0000001A         CAN1_Error_IRQHandler
  739 0000001A         CAN1_Tx_Warning_IRQHandler
  740 0000001A         CAN1_Rx_Warning_IRQHandler
  741 0000001A         CAN1_Wake_Up_IRQHandler
  742 0000001A         Reserved59_IRQHandler
  743 0000001A         UART0_LON_IRQHandler
  744 0000001A         UART0_RX_TX_IRQHandler
  745 0000001A         UART0_ERR_IRQHandler
  746 0000001A         UART1_RX_TX_IRQHandler
  747 0000001A         UART1_ERR_IRQHandler
  748 0000001A         UART2_RX_TX_IRQHandler
  749 0000001A         UART2_ERR_IRQHandler
  750 0000001A         UART3_RX_TX_IRQHandler
  751 0000001A         UART3_ERR_IRQHandler
  752 0000001A         UART4_RX_TX_IRQHandler
  753 0000001A         UART4_ERR_IRQHandler
  754 0000001A         UART5_RX_TX_IRQHandler
  755 0000001A         UART5_ERR_IRQHandler
  756 0000001A         ADC0_IRQHandler
  757 0000001A         ADC1_IRQHandler
  758 0000001A         CMP0_IRQHandler
  759 0000001A         CMP1_IRQHandler
  760 0000001A         CMP2_IRQHandler
  761 0000001A         FTM0_IRQHandler
  762 0000001A         FTM1_IRQHandler
  763 0000001A         FTM2_IRQHandler
  764 0000001A         CMT_IRQHandler
  765 0000001A         RTC_IRQHandler
  766 0000001A         RTC_Seconds_IRQHandler
  767 0000001A         PIT0_IRQHandler
  768 0000001A         PIT1_IRQHandler
  769 0000001A         PIT2_IRQHandler
  770 0000001A         PIT3_IRQHandler
  771 0000001A         PDB0_IRQHandler
  772 0000001A         USB0_IRQHandler
  773 0000001A         USBDCD_IRQHandler
  774 0000001A         ENET_1588_Timer_IRQHandler
  775 0000001A         ENET_Transmit_IRQHandler
  776 0000001A         ENET_Receive_IRQHandler
  777 0000001A         ENET_Error_IRQHandler
  778 0000001A         Reserved95_IRQHandler
  779 0000001A         SDHC_IRQHandler
  780 0000001A         DAC0_IRQHandler
  781 0000001A         DAC1_IRQHandler
  782 0000001A         TSI0_IRQHandler
  783 0000001A         MCG_IRQHandler
  784 0000001A         LPTimer_IRQHandler
  785 0000001A         Reserved102_IRQHandler
  786 0000001A         PORTA_IRQHandler
  787 0000001A         PORTB_IRQHandler
  788 0000001A         PORTC_IRQHandler
  789 0000001A         PORTD_IRQHandler
  790 0000001A         PORTE_IRQHandler
  791 0000001A         Reserved108_IRQHandler
  792 0000001A         Reserved109_IRQHandler



ARM Macro Assembler    Page 20 


  793 0000001A         SWI_IRQHandler
  794 0000001A         Reserved111_IRQHandler
  795 0000001A         Reserved112_IRQHandler
  796 0000001A         Reserved113_IRQHandler
  797 0000001A         Reserved114_IRQHandler
  798 0000001A         Reserved115_IRQHandler
  799 0000001A         Reserved116_IRQHandler
  800 0000001A         Reserved117_IRQHandler
  801 0000001A         Reserved118_IRQHandler
  802 0000001A         Reserved119_IRQHandler
  803 0000001A         DefaultISR
  804 0000001A         
  805 0000001A E7FE            B                .
  806 0000001C         
  807 0000001C                 ENDP
  808 0000001C         
  809 0000001C         
  810 0000001C         ;*******************************************************
                       ***********************
  811 0000001C         ;
  812 0000001C         ; Make sure the end of this section is aligned.
  813 0000001C         ;
  814 0000001C         ;*******************************************************
                       ***********************
  815 0000001C         
  816 0000001C                 ALIGN
  817 0000001C         
  818 0000001C         ;*******************************************************
                       ***********************
  819 0000001C         ;
  820 0000001C         ; Useful functions.
  821 0000001C         ;
  822 0000001C         ;*******************************************************
                       ***********************
  823 0000001C                 EXPORT           DisableInterrupts
  824 0000001C                 EXPORT           EnableInterrupts
  825 0000001C                 EXPORT           StartCritical
  826 0000001C                 EXPORT           EndCritical
  827 0000001C                 EXPORT           WaitForInterrupt
  828 0000001C         
  829 0000001C         ;*********** DisableInterrupts ***************
  830 0000001C         ; disable interrupts
  831 0000001C         ; inputs:  none
  832 0000001C         ; outputs: none
  833 0000001C         DisableInterrupts
  834 0000001C B672            CPSID            I
  835 0000001E 4770            BX               LR
  836 00000020         
  837 00000020         ;*********** EnableInterrupts ***************
  838 00000020         ; disable interrupts
  839 00000020         ; inputs:  none
  840 00000020         ; outputs: none
  841 00000020         EnableInterrupts
  842 00000020 B662            CPSIE            I
  843 00000022 4770            BX               LR
  844 00000024         
  845 00000024         ;*********** StartCritical ************************
  846 00000024         ; make a copy of previous I bit, disable interrupts
  847 00000024         ; inputs:  none



ARM Macro Assembler    Page 21 


  848 00000024         ; outputs: previous I bit
  849 00000024         StartCritical
  850 00000024 F3EF 8010       MRS              R0, PRIMASK ; save old status
  851 00000028 B672            CPSID            I           ; mask all (except 
                                                            faults)
  852 0000002A 4770            BX               LR
  853 0000002C         
  854 0000002C         ;*********** EndCritical ************************
  855 0000002C         ; using the copy of previous I bit, restore I bit to pre
                       vious value
  856 0000002C         ; inputs:  previous I bit
  857 0000002C         ; outputs: none
  858 0000002C         EndCritical
  859 0000002C F380 8810       MSR              PRIMASK, R0
  860 00000030 4770            BX               LR
  861 00000032         
  862 00000032         ;*********** WaitForInterrupt ************************
  863 00000032         ; go to low power mode while waiting for the next interr
                       upt
  864 00000032         ; inputs:  none
  865 00000032         ; outputs: none
  866 00000032         WaitForInterrupt
  867 00000032 BF30            WFI
  868 00000034 4770            BX               LR
  869 00000036         
  870 00000036         
  871 00000036         ; User Initial Stack & Heap
  872 00000036         
  873 00000036         ;*******************************************************
                       ***********************
  874 00000036         ;
  875 00000036         ; The function expected of the C library startup code fo
                       r defining the stack
  876 00000036         ; and heap memory locations.  For the C library version 
                       of the startup code,
  877 00000036         ; provide this function so that the C library initializa
                       tion code can find out
  878 00000036         ; the location of the stack and heap.
  879 00000036         ;
  880 00000036         ;*******************************************************
                       ***********************
  881 00000036         
  882 00000036                 IF               :DEF:__MICROLIB
  889 00000036         
  890 00000036                 IMPORT           __use_two_region_memory
  891 00000036                 EXPORT           __user_initial_stackheap
  892 00000036         __user_initial_stackheap
  893 00000036         
  894 00000036 4804            LDR              R0, =  Heap_Mem
  895 00000038 4904            LDR              R1, =(Stack_Mem + Stack_Size)
  896 0000003A 4A03            LDR              R2, = (Heap_Mem +  Heap_Size)
  897 0000003C 4B04            LDR              R3, = Stack_Mem
  898 0000003E 4770            BX               LR
  899 00000040         
  900 00000040                 ENDIF
  901 00000040         
  902 00000040         ;*******************************************************
                       ***********************
  903 00000040         ;



ARM Macro Assembler    Page 22 


  904 00000040         ; Make sure the end of this section is aligned.
  905 00000040         ;
  906 00000040         ;*******************************************************
                       ***********************
  907 00000040                 ALIGN
  908 00000040         
  909 00000040         ;*******************************************************
                       ***********************
  910 00000040         ;
  911 00000040         ; Tell the assembler that we're done.
  912 00000040         ;
  913 00000040         ;*******************************************************
                       ***********************
  914 00000040                 END
              00000000 
              00000000 
              00000000 
              00000400 
              00000000 
Command Line: --debug --xref --diag_suppress=9931 --cpu=Cortex-M4 --apcs=interw
ork --depend=.\objects\startup_mk60d10.d -o.\objects\startup_mk60d10.o -I"D:\sh
obhik\kill Pro\SDOS\RTE" -IC:\Keil_v5\ARM\PACK\ARM\CMSIS\5.5.1\CMSIS\Core\Inclu
de -IC:\Keil_v5\ARM\PACK\Keil\Kinetis_K60_DFP\1.5.0\Device\Include --predefine=
"__EVAL SETA 1" --predefine="__UVISION_VERSION SETA 521" --predefine="_RTE_ SET
A 1" --predefine="MK60DN512xxx10 SETA 1" --list=.\listings\startup_mk60d10.lst 
RTE\Device\MK60DN512xxx10\startup_MK60D10.s



ARM Macro Assembler    Page 1 Alphabetic symbol ordering
Relocatable symbols

STACK 00000000

Symbol: STACK
   Definitions
      At line 31 in file RTE\Device\MK60DN512xxx10\startup_MK60D10.s
   Uses
      None
Comment: STACK unused
Stack_Mem 00000000

Symbol: Stack_Mem
   Definitions
      At line 56 in file RTE\Device\MK60DN512xxx10\startup_MK60D10.s
   Uses
      At line 895 in file RTE\Device\MK60DN512xxx10\startup_MK60D10.s
      At line 897 in file RTE\Device\MK60DN512xxx10\startup_MK60D10.s

__initial_sp 00000400

Symbol: __initial_sp
   Definitions
      At line 57 in file RTE\Device\MK60DN512xxx10\startup_MK60D10.s
   Uses
      At line 112 in file RTE\Device\MK60DN512xxx10\startup_MK60D10.s
Comment: __initial_sp used once
3 symbols



ARM Macro Assembler    Page 1 Alphabetic symbol ordering
Relocatable symbols

HEAP 00000000

Symbol: HEAP
   Definitions
      At line 76 in file RTE\Device\MK60DN512xxx10\startup_MK60D10.s
   Uses
      None
Comment: HEAP unused
Heap_Mem 00000000

Symbol: Heap_Mem
   Definitions
      At line 78 in file RTE\Device\MK60DN512xxx10\startup_MK60D10.s
   Uses
      At line 894 in file RTE\Device\MK60DN512xxx10\startup_MK60D10.s
      At line 896 in file RTE\Device\MK60DN512xxx10\startup_MK60D10.s

__heap_base 00000000

Symbol: __heap_base
   Definitions
      At line 77 in file RTE\Device\MK60DN512xxx10\startup_MK60D10.s
   Uses
      None
Comment: __heap_base unused
__heap_limit 00000000

Symbol: __heap_limit
   Definitions
      At line 79 in file RTE\Device\MK60DN512xxx10\startup_MK60D10.s
   Uses
      None
Comment: __heap_limit unused
4 symbols



ARM Macro Assembler    Page 1 Alphabetic symbol ordering
Relocatable symbols

RESET 00000000

Symbol: RESET
   Definitions
      At line 96 in file RTE\Device\MK60DN512xxx10\startup_MK60D10.s
   Uses
      None
Comment: RESET unused
__Vectors 00000000

Symbol: __Vectors
   Definitions
      At line 112 in file RTE\Device\MK60DN512xxx10\startup_MK60D10.s
   Uses
      At line 108 in file RTE\Device\MK60DN512xxx10\startup_MK60D10.s
      At line 372 in file RTE\Device\MK60DN512xxx10\startup_MK60D10.s

__Vectors_End 00000400

Symbol: __Vectors_End
   Definitions
      At line 370 in file RTE\Device\MK60DN512xxx10\startup_MK60D10.s
   Uses
      At line 109 in file RTE\Device\MK60DN512xxx10\startup_MK60D10.s
      At line 372 in file RTE\Device\MK60DN512xxx10\startup_MK60D10.s

3 symbols



ARM Macro Assembler    Page 1 Alphabetic symbol ordering
Relocatable symbols

.ARM.__at_0x400 00000000

Symbol: .ARM.__at_0x400
   Definitions
      At line 520 in file RTE\Device\MK60DN512xxx10\startup_MK60D10.s
   Uses
      None
Comment: .ARM.__at_0x400 unused
1 symbol



ARM Macro Assembler    Page 1 Alphabetic symbol ordering
Relocatable symbols

.text 00000000

Symbol: .text
   Definitions
      At line 532 in file RTE\Device\MK60DN512xxx10\startup_MK60D10.s
   Uses
      None
Comment: .text unused
ADC0_IRQHandler 0000001A

Symbol: ADC0_IRQHandler
   Definitions
      At line 756 in file RTE\Device\MK60DN512xxx10\startup_MK60D10.s
   Uses
      At line 187 in file RTE\Device\MK60DN512xxx10\startup_MK60D10.s
      At line 650 in file RTE\Device\MK60DN512xxx10\startup_MK60D10.s

ADC1_IRQHandler 0000001A

Symbol: ADC1_IRQHandler
   Definitions
      At line 757 in file RTE\Device\MK60DN512xxx10\startup_MK60D10.s
   Uses
      At line 188 in file RTE\Device\MK60DN512xxx10\startup_MK60D10.s
      At line 651 in file RTE\Device\MK60DN512xxx10\startup_MK60D10.s

BusFault_Handler 0000000E

Symbol: BusFault_Handler
   Definitions
      At line 565 in file RTE\Device\MK60DN512xxx10\startup_MK60D10.s
   Uses
      At line 117 in file RTE\Device\MK60DN512xxx10\startup_MK60D10.s
      At line 566 in file RTE\Device\MK60DN512xxx10\startup_MK60D10.s

CAN0_Bus_Off_IRQHandler 0000001A

Symbol: CAN0_Bus_Off_IRQHandler
   Definitions
      At line 729 in file RTE\Device\MK60DN512xxx10\startup_MK60D10.s
   Uses
      At line 160 in file RTE\Device\MK60DN512xxx10\startup_MK60D10.s
      At line 623 in file RTE\Device\MK60DN512xxx10\startup_MK60D10.s

CAN0_Error_IRQHandler 0000001A

Symbol: CAN0_Error_IRQHandler
   Definitions
      At line 730 in file RTE\Device\MK60DN512xxx10\startup_MK60D10.s
   Uses
      At line 161 in file RTE\Device\MK60DN512xxx10\startup_MK60D10.s
      At line 624 in file RTE\Device\MK60DN512xxx10\startup_MK60D10.s

CAN0_ORed_Message_buffer_IRQHandler 0000001A

Symbol: CAN0_ORed_Message_buffer_IRQHandler
   Definitions
      At line 728 in file RTE\Device\MK60DN512xxx10\startup_MK60D10.s
   Uses



ARM Macro Assembler    Page 2 Alphabetic symbol ordering
Relocatable symbols

      At line 159 in file RTE\Device\MK60DN512xxx10\startup_MK60D10.s
      At line 622 in file RTE\Device\MK60DN512xxx10\startup_MK60D10.s

CAN0_Rx_Warning_IRQHandler 0000001A

Symbol: CAN0_Rx_Warning_IRQHandler
   Definitions
      At line 732 in file RTE\Device\MK60DN512xxx10\startup_MK60D10.s
   Uses
      At line 163 in file RTE\Device\MK60DN512xxx10\startup_MK60D10.s
      At line 626 in file RTE\Device\MK60DN512xxx10\startup_MK60D10.s

CAN0_Tx_Warning_IRQHandler 0000001A

Symbol: CAN0_Tx_Warning_IRQHandler
   Definitions
      At line 731 in file RTE\Device\MK60DN512xxx10\startup_MK60D10.s
   Uses
      At line 162 in file RTE\Device\MK60DN512xxx10\startup_MK60D10.s
      At line 625 in file RTE\Device\MK60DN512xxx10\startup_MK60D10.s

CAN0_Wake_Up_IRQHandler 0000001A

Symbol: CAN0_Wake_Up_IRQHandler
   Definitions
      At line 733 in file RTE\Device\MK60DN512xxx10\startup_MK60D10.s
   Uses
      At line 164 in file RTE\Device\MK60DN512xxx10\startup_MK60D10.s
      At line 627 in file RTE\Device\MK60DN512xxx10\startup_MK60D10.s

CAN1_Bus_Off_IRQHandler 0000001A

Symbol: CAN1_Bus_Off_IRQHandler
   Definitions
      At line 737 in file RTE\Device\MK60DN512xxx10\startup_MK60D10.s
   Uses
      At line 168 in file RTE\Device\MK60DN512xxx10\startup_MK60D10.s
      At line 631 in file RTE\Device\MK60DN512xxx10\startup_MK60D10.s

CAN1_Error_IRQHandler 0000001A

Symbol: CAN1_Error_IRQHandler
   Definitions
      At line 738 in file RTE\Device\MK60DN512xxx10\startup_MK60D10.s
   Uses
      At line 169 in file RTE\Device\MK60DN512xxx10\startup_MK60D10.s
      At line 632 in file RTE\Device\MK60DN512xxx10\startup_MK60D10.s

CAN1_ORed_Message_buffer_IRQHandler 0000001A

Symbol: CAN1_ORed_Message_buffer_IRQHandler
   Definitions
      At line 736 in file RTE\Device\MK60DN512xxx10\startup_MK60D10.s
   Uses
      At line 167 in file RTE\Device\MK60DN512xxx10\startup_MK60D10.s
      At line 630 in file RTE\Device\MK60DN512xxx10\startup_MK60D10.s

CAN1_Rx_Warning_IRQHandler 0000001A




ARM Macro Assembler    Page 3 Alphabetic symbol ordering
Relocatable symbols

Symbol: CAN1_Rx_Warning_IRQHandler
   Definitions
      At line 740 in file RTE\Device\MK60DN512xxx10\startup_MK60D10.s
   Uses
      At line 171 in file RTE\Device\MK60DN512xxx10\startup_MK60D10.s
      At line 634 in file RTE\Device\MK60DN512xxx10\startup_MK60D10.s

CAN1_Tx_Warning_IRQHandler 0000001A

Symbol: CAN1_Tx_Warning_IRQHandler
   Definitions
      At line 739 in file RTE\Device\MK60DN512xxx10\startup_MK60D10.s
   Uses
      At line 170 in file RTE\Device\MK60DN512xxx10\startup_MK60D10.s
      At line 633 in file RTE\Device\MK60DN512xxx10\startup_MK60D10.s

CAN1_Wake_Up_IRQHandler 0000001A

Symbol: CAN1_Wake_Up_IRQHandler
   Definitions
      At line 741 in file RTE\Device\MK60DN512xxx10\startup_MK60D10.s
   Uses
      At line 172 in file RTE\Device\MK60DN512xxx10\startup_MK60D10.s
      At line 635 in file RTE\Device\MK60DN512xxx10\startup_MK60D10.s

CMP0_IRQHandler 0000001A

Symbol: CMP0_IRQHandler
   Definitions
      At line 758 in file RTE\Device\MK60DN512xxx10\startup_MK60D10.s
   Uses
      At line 189 in file RTE\Device\MK60DN512xxx10\startup_MK60D10.s
      At line 652 in file RTE\Device\MK60DN512xxx10\startup_MK60D10.s

CMP1_IRQHandler 0000001A

Symbol: CMP1_IRQHandler
   Definitions
      At line 759 in file RTE\Device\MK60DN512xxx10\startup_MK60D10.s
   Uses
      At line 190 in file RTE\Device\MK60DN512xxx10\startup_MK60D10.s
      At line 653 in file RTE\Device\MK60DN512xxx10\startup_MK60D10.s

CMP2_IRQHandler 0000001A

Symbol: CMP2_IRQHandler
   Definitions
      At line 760 in file RTE\Device\MK60DN512xxx10\startup_MK60D10.s
   Uses
      At line 191 in file RTE\Device\MK60DN512xxx10\startup_MK60D10.s
      At line 654 in file RTE\Device\MK60DN512xxx10\startup_MK60D10.s

CMT_IRQHandler 0000001A

Symbol: CMT_IRQHandler
   Definitions
      At line 764 in file RTE\Device\MK60DN512xxx10\startup_MK60D10.s
   Uses
      At line 195 in file RTE\Device\MK60DN512xxx10\startup_MK60D10.s



ARM Macro Assembler    Page 4 Alphabetic symbol ordering
Relocatable symbols

      At line 658 in file RTE\Device\MK60DN512xxx10\startup_MK60D10.s

DAC0_IRQHandler 0000001A

Symbol: DAC0_IRQHandler
   Definitions
      At line 780 in file RTE\Device\MK60DN512xxx10\startup_MK60D10.s
   Uses
      At line 211 in file RTE\Device\MK60DN512xxx10\startup_MK60D10.s
      At line 674 in file RTE\Device\MK60DN512xxx10\startup_MK60D10.s

DAC1_IRQHandler 0000001A

Symbol: DAC1_IRQHandler
   Definitions
      At line 781 in file RTE\Device\MK60DN512xxx10\startup_MK60D10.s
   Uses
      At line 212 in file RTE\Device\MK60DN512xxx10\startup_MK60D10.s
      At line 675 in file RTE\Device\MK60DN512xxx10\startup_MK60D10.s

DMA0_IRQHandler 0000001A

Symbol: DMA0_IRQHandler
   Definitions
      At line 699 in file RTE\Device\MK60DN512xxx10\startup_MK60D10.s
   Uses
      At line 130 in file RTE\Device\MK60DN512xxx10\startup_MK60D10.s
      At line 593 in file RTE\Device\MK60DN512xxx10\startup_MK60D10.s

DMA10_IRQHandler 0000001A

Symbol: DMA10_IRQHandler
   Definitions
      At line 709 in file RTE\Device\MK60DN512xxx10\startup_MK60D10.s
   Uses
      At line 140 in file RTE\Device\MK60DN512xxx10\startup_MK60D10.s
      At line 603 in file RTE\Device\MK60DN512xxx10\startup_MK60D10.s

DMA11_IRQHandler 0000001A

Symbol: DMA11_IRQHandler
   Definitions
      At line 710 in file RTE\Device\MK60DN512xxx10\startup_MK60D10.s
   Uses
      At line 141 in file RTE\Device\MK60DN512xxx10\startup_MK60D10.s
      At line 604 in file RTE\Device\MK60DN512xxx10\startup_MK60D10.s

DMA12_IRQHandler 0000001A

Symbol: DMA12_IRQHandler
   Definitions
      At line 711 in file RTE\Device\MK60DN512xxx10\startup_MK60D10.s
   Uses
      At line 142 in file RTE\Device\MK60DN512xxx10\startup_MK60D10.s
      At line 605 in file RTE\Device\MK60DN512xxx10\startup_MK60D10.s

DMA13_IRQHandler 0000001A

Symbol: DMA13_IRQHandler



ARM Macro Assembler    Page 5 Alphabetic symbol ordering
Relocatable symbols

   Definitions
      At line 712 in file RTE\Device\MK60DN512xxx10\startup_MK60D10.s
   Uses
      At line 143 in file RTE\Device\MK60DN512xxx10\startup_MK60D10.s
      At line 606 in file RTE\Device\MK60DN512xxx10\startup_MK60D10.s

DMA14_IRQHandler 0000001A

Symbol: DMA14_IRQHandler
   Definitions
      At line 713 in file RTE\Device\MK60DN512xxx10\startup_MK60D10.s
   Uses
      At line 144 in file RTE\Device\MK60DN512xxx10\startup_MK60D10.s
      At line 607 in file RTE\Device\MK60DN512xxx10\startup_MK60D10.s

DMA15_IRQHandler 0000001A

Symbol: DMA15_IRQHandler
   Definitions
      At line 714 in file RTE\Device\MK60DN512xxx10\startup_MK60D10.s
   Uses
      At line 145 in file RTE\Device\MK60DN512xxx10\startup_MK60D10.s
      At line 608 in file RTE\Device\MK60DN512xxx10\startup_MK60D10.s

DMA1_IRQHandler 0000001A

Symbol: DMA1_IRQHandler
   Definitions
      At line 700 in file RTE\Device\MK60DN512xxx10\startup_MK60D10.s
   Uses
      At line 131 in file RTE\Device\MK60DN512xxx10\startup_MK60D10.s
      At line 594 in file RTE\Device\MK60DN512xxx10\startup_MK60D10.s

DMA2_IRQHandler 0000001A

Symbol: DMA2_IRQHandler
   Definitions
      At line 701 in file RTE\Device\MK60DN512xxx10\startup_MK60D10.s
   Uses
      At line 132 in file RTE\Device\MK60DN512xxx10\startup_MK60D10.s
      At line 595 in file RTE\Device\MK60DN512xxx10\startup_MK60D10.s

DMA3_IRQHandler 0000001A

Symbol: DMA3_IRQHandler
   Definitions
      At line 702 in file RTE\Device\MK60DN512xxx10\startup_MK60D10.s
   Uses
      At line 133 in file RTE\Device\MK60DN512xxx10\startup_MK60D10.s
      At line 596 in file RTE\Device\MK60DN512xxx10\startup_MK60D10.s

DMA4_IRQHandler 0000001A

Symbol: DMA4_IRQHandler
   Definitions
      At line 703 in file RTE\Device\MK60DN512xxx10\startup_MK60D10.s
   Uses
      At line 134 in file RTE\Device\MK60DN512xxx10\startup_MK60D10.s
      At line 597 in file RTE\Device\MK60DN512xxx10\startup_MK60D10.s



ARM Macro Assembler    Page 6 Alphabetic symbol ordering
Relocatable symbols


DMA5_IRQHandler 0000001A

Symbol: DMA5_IRQHandler
   Definitions
      At line 704 in file RTE\Device\MK60DN512xxx10\startup_MK60D10.s
   Uses
      At line 135 in file RTE\Device\MK60DN512xxx10\startup_MK60D10.s
      At line 598 in file RTE\Device\MK60DN512xxx10\startup_MK60D10.s

DMA6_IRQHandler 0000001A

Symbol: DMA6_IRQHandler
   Definitions
      At line 705 in file RTE\Device\MK60DN512xxx10\startup_MK60D10.s
   Uses
      At line 136 in file RTE\Device\MK60DN512xxx10\startup_MK60D10.s
      At line 599 in file RTE\Device\MK60DN512xxx10\startup_MK60D10.s

DMA7_IRQHandler 0000001A

Symbol: DMA7_IRQHandler
   Definitions
      At line 706 in file RTE\Device\MK60DN512xxx10\startup_MK60D10.s
   Uses
      At line 137 in file RTE\Device\MK60DN512xxx10\startup_MK60D10.s
      At line 600 in file RTE\Device\MK60DN512xxx10\startup_MK60D10.s

DMA8_IRQHandler 0000001A

Symbol: DMA8_IRQHandler
   Definitions
      At line 707 in file RTE\Device\MK60DN512xxx10\startup_MK60D10.s
   Uses
      At line 138 in file RTE\Device\MK60DN512xxx10\startup_MK60D10.s
      At line 601 in file RTE\Device\MK60DN512xxx10\startup_MK60D10.s

DMA9_IRQHandler 0000001A

Symbol: DMA9_IRQHandler
   Definitions
      At line 708 in file RTE\Device\MK60DN512xxx10\startup_MK60D10.s
   Uses
      At line 139 in file RTE\Device\MK60DN512xxx10\startup_MK60D10.s
      At line 602 in file RTE\Device\MK60DN512xxx10\startup_MK60D10.s

DMA_Error_IRQHandler 0000001A

Symbol: DMA_Error_IRQHandler
   Definitions
      At line 715 in file RTE\Device\MK60DN512xxx10\startup_MK60D10.s
   Uses
      At line 146 in file RTE\Device\MK60DN512xxx10\startup_MK60D10.s
      At line 609 in file RTE\Device\MK60DN512xxx10\startup_MK60D10.s

DebugMon_Handler 00000014

Symbol: DebugMon_Handler
   Definitions



ARM Macro Assembler    Page 7 Alphabetic symbol ordering
Relocatable symbols

      At line 579 in file RTE\Device\MK60DN512xxx10\startup_MK60D10.s
   Uses
      At line 124 in file RTE\Device\MK60DN512xxx10\startup_MK60D10.s
      At line 580 in file RTE\Device\MK60DN512xxx10\startup_MK60D10.s

DefaultISR 0000001A

Symbol: DefaultISR
   Definitions
      At line 803 in file RTE\Device\MK60DN512xxx10\startup_MK60D10.s
   Uses
      At line 234 in file RTE\Device\MK60DN512xxx10\startup_MK60D10.s
      At line 235 in file RTE\Device\MK60DN512xxx10\startup_MK60D10.s
      At line 236 in file RTE\Device\MK60DN512xxx10\startup_MK60D10.s
      At line 237 in file RTE\Device\MK60DN512xxx10\startup_MK60D10.s
      At line 238 in file RTE\Device\MK60DN512xxx10\startup_MK60D10.s
      At line 239 in file RTE\Device\MK60DN512xxx10\startup_MK60D10.s
      At line 240 in file RTE\Device\MK60DN512xxx10\startup_MK60D10.s
      At line 241 in file RTE\Device\MK60DN512xxx10\startup_MK60D10.s
      At line 242 in file RTE\Device\MK60DN512xxx10\startup_MK60D10.s
      At line 243 in file RTE\Device\MK60DN512xxx10\startup_MK60D10.s
      At line 244 in file RTE\Device\MK60DN512xxx10\startup_MK60D10.s
      At line 245 in file RTE\Device\MK60DN512xxx10\startup_MK60D10.s
      At line 246 in file RTE\Device\MK60DN512xxx10\startup_MK60D10.s
      At line 247 in file RTE\Device\MK60DN512xxx10\startup_MK60D10.s
      At line 248 in file RTE\Device\MK60DN512xxx10\startup_MK60D10.s
      At line 249 in file RTE\Device\MK60DN512xxx10\startup_MK60D10.s
      At line 250 in file RTE\Device\MK60DN512xxx10\startup_MK60D10.s
      At line 251 in file RTE\Device\MK60DN512xxx10\startup_MK60D10.s
      At line 252 in file RTE\Device\MK60DN512xxx10\startup_MK60D10.s
      At line 253 in file RTE\Device\MK60DN512xxx10\startup_MK60D10.s
      At line 254 in file RTE\Device\MK60DN512xxx10\startup_MK60D10.s
      At line 255 in file RTE\Device\MK60DN512xxx10\startup_MK60D10.s
      At line 256 in file RTE\Device\MK60DN512xxx10\startup_MK60D10.s
      At line 257 in file RTE\Device\MK60DN512xxx10\startup_MK60D10.s
      At line 258 in file RTE\Device\MK60DN512xxx10\startup_MK60D10.s
      At line 259 in file RTE\Device\MK60DN512xxx10\startup_MK60D10.s
      At line 260 in file RTE\Device\MK60DN512xxx10\startup_MK60D10.s
      At line 261 in file RTE\Device\MK60DN512xxx10\startup_MK60D10.s
      At line 262 in file RTE\Device\MK60DN512xxx10\startup_MK60D10.s
      At line 263 in file RTE\Device\MK60DN512xxx10\startup_MK60D10.s
      At line 264 in file RTE\Device\MK60DN512xxx10\startup_MK60D10.s
      At line 265 in file RTE\Device\MK60DN512xxx10\startup_MK60D10.s
      At line 266 in file RTE\Device\MK60DN512xxx10\startup_MK60D10.s
      At line 267 in file RTE\Device\MK60DN512xxx10\startup_MK60D10.s
      At line 268 in file RTE\Device\MK60DN512xxx10\startup_MK60D10.s
      At line 269 in file RTE\Device\MK60DN512xxx10\startup_MK60D10.s
      At line 270 in file RTE\Device\MK60DN512xxx10\startup_MK60D10.s
      At line 271 in file RTE\Device\MK60DN512xxx10\startup_MK60D10.s
      At line 272 in file RTE\Device\MK60DN512xxx10\startup_MK60D10.s
      At line 273 in file RTE\Device\MK60DN512xxx10\startup_MK60D10.s
      At line 274 in file RTE\Device\MK60DN512xxx10\startup_MK60D10.s
      At line 275 in file RTE\Device\MK60DN512xxx10\startup_MK60D10.s
      At line 276 in file RTE\Device\MK60DN512xxx10\startup_MK60D10.s
      At line 277 in file RTE\Device\MK60DN512xxx10\startup_MK60D10.s
      At line 278 in file RTE\Device\MK60DN512xxx10\startup_MK60D10.s
      At line 279 in file RTE\Device\MK60DN512xxx10\startup_MK60D10.s
      At line 280 in file RTE\Device\MK60DN512xxx10\startup_MK60D10.s
      At line 281 in file RTE\Device\MK60DN512xxx10\startup_MK60D10.s



ARM Macro Assembler    Page 8 Alphabetic symbol ordering
Relocatable symbols

      At line 282 in file RTE\Device\MK60DN512xxx10\startup_MK60D10.s
      At line 283 in file RTE\Device\MK60DN512xxx10\startup_MK60D10.s
      At line 284 in file RTE\Device\MK60DN512xxx10\startup_MK60D10.s
      At line 285 in file RTE\Device\MK60DN512xxx10\startup_MK60D10.s
      At line 286 in file RTE\Device\MK60DN512xxx10\startup_MK60D10.s
      At line 287 in file RTE\Device\MK60DN512xxx10\startup_MK60D10.s
      At line 288 in file RTE\Device\MK60DN512xxx10\startup_MK60D10.s
      At line 289 in file RTE\Device\MK60DN512xxx10\startup_MK60D10.s
      At line 290 in file RTE\Device\MK60DN512xxx10\startup_MK60D10.s
      At line 291 in file RTE\Device\MK60DN512xxx10\startup_MK60D10.s
      At line 292 in file RTE\Device\MK60DN512xxx10\startup_MK60D10.s
      At line 293 in file RTE\Device\MK60DN512xxx10\startup_MK60D10.s
      At line 294 in file RTE\Device\MK60DN512xxx10\startup_MK60D10.s
      At line 295 in file RTE\Device\MK60DN512xxx10\startup_MK60D10.s
      At line 296 in file RTE\Device\MK60DN512xxx10\startup_MK60D10.s
      At line 297 in file RTE\Device\MK60DN512xxx10\startup_MK60D10.s
      At line 298 in file RTE\Device\MK60DN512xxx10\startup_MK60D10.s
      At line 299 in file RTE\Device\MK60DN512xxx10\startup_MK60D10.s
      At line 300 in file RTE\Device\MK60DN512xxx10\startup_MK60D10.s
      At line 301 in file RTE\Device\MK60DN512xxx10\startup_MK60D10.s
      At line 302 in file RTE\Device\MK60DN512xxx10\startup_MK60D10.s
      At line 303 in file RTE\Device\MK60DN512xxx10\startup_MK60D10.s
      At line 304 in file RTE\Device\MK60DN512xxx10\startup_MK60D10.s
      At line 305 in file RTE\Device\MK60DN512xxx10\startup_MK60D10.s
      At line 306 in file RTE\Device\MK60DN512xxx10\startup_MK60D10.s
      At line 307 in file RTE\Device\MK60DN512xxx10\startup_MK60D10.s
      At line 308 in file RTE\Device\MK60DN512xxx10\startup_MK60D10.s
      At line 309 in file RTE\Device\MK60DN512xxx10\startup_MK60D10.s
      At line 310 in file RTE\Device\MK60DN512xxx10\startup_MK60D10.s
      At line 311 in file RTE\Device\MK60DN512xxx10\startup_MK60D10.s
      At line 312 in file RTE\Device\MK60DN512xxx10\startup_MK60D10.s
      At line 313 in file RTE\Device\MK60DN512xxx10\startup_MK60D10.s
      At line 314 in file RTE\Device\MK60DN512xxx10\startup_MK60D10.s
      At line 315 in file RTE\Device\MK60DN512xxx10\startup_MK60D10.s
      At line 316 in file RTE\Device\MK60DN512xxx10\startup_MK60D10.s
      At line 317 in file RTE\Device\MK60DN512xxx10\startup_MK60D10.s
      At line 318 in file RTE\Device\MK60DN512xxx10\startup_MK60D10.s
      At line 319 in file RTE\Device\MK60DN512xxx10\startup_MK60D10.s
      At line 320 in file RTE\Device\MK60DN512xxx10\startup_MK60D10.s
      At line 321 in file RTE\Device\MK60DN512xxx10\startup_MK60D10.s
      At line 322 in file RTE\Device\MK60DN512xxx10\startup_MK60D10.s
      At line 323 in file RTE\Device\MK60DN512xxx10\startup_MK60D10.s
      At line 324 in file RTE\Device\MK60DN512xxx10\startup_MK60D10.s
      At line 325 in file RTE\Device\MK60DN512xxx10\startup_MK60D10.s
      At line 326 in file RTE\Device\MK60DN512xxx10\startup_MK60D10.s
      At line 327 in file RTE\Device\MK60DN512xxx10\startup_MK60D10.s
      At line 328 in file RTE\Device\MK60DN512xxx10\startup_MK60D10.s
      At line 329 in file RTE\Device\MK60DN512xxx10\startup_MK60D10.s
      At line 330 in file RTE\Device\MK60DN512xxx10\startup_MK60D10.s
      At line 331 in file RTE\Device\MK60DN512xxx10\startup_MK60D10.s
      At line 332 in file RTE\Device\MK60DN512xxx10\startup_MK60D10.s
      At line 333 in file RTE\Device\MK60DN512xxx10\startup_MK60D10.s
      At line 334 in file RTE\Device\MK60DN512xxx10\startup_MK60D10.s
      At line 335 in file RTE\Device\MK60DN512xxx10\startup_MK60D10.s
      At line 336 in file RTE\Device\MK60DN512xxx10\startup_MK60D10.s
      At line 337 in file RTE\Device\MK60DN512xxx10\startup_MK60D10.s
      At line 338 in file RTE\Device\MK60DN512xxx10\startup_MK60D10.s
      At line 339 in file RTE\Device\MK60DN512xxx10\startup_MK60D10.s
      At line 340 in file RTE\Device\MK60DN512xxx10\startup_MK60D10.s



ARM Macro Assembler    Page 9 Alphabetic symbol ordering
Relocatable symbols

      At line 341 in file RTE\Device\MK60DN512xxx10\startup_MK60D10.s
      At line 342 in file RTE\Device\MK60DN512xxx10\startup_MK60D10.s
      At line 343 in file RTE\Device\MK60DN512xxx10\startup_MK60D10.s
      At line 344 in file RTE\Device\MK60DN512xxx10\startup_MK60D10.s
      At line 345 in file RTE\Device\MK60DN512xxx10\startup_MK60D10.s
      At line 346 in file RTE\Device\MK60DN512xxx10\startup_MK60D10.s
      At line 347 in file RTE\Device\MK60DN512xxx10\startup_MK60D10.s
      At line 348 in file RTE\Device\MK60DN512xxx10\startup_MK60D10.s
      At line 349 in file RTE\Device\MK60DN512xxx10\startup_MK60D10.s
      At line 350 in file RTE\Device\MK60DN512xxx10\startup_MK60D10.s
      At line 351 in file RTE\Device\MK60DN512xxx10\startup_MK60D10.s
      At line 352 in file RTE\Device\MK60DN512xxx10\startup_MK60D10.s
      At line 353 in file RTE\Device\MK60DN512xxx10\startup_MK60D10.s
      At line 354 in file RTE\Device\MK60DN512xxx10\startup_MK60D10.s
      At line 355 in file RTE\Device\MK60DN512xxx10\startup_MK60D10.s
      At line 356 in file RTE\Device\MK60DN512xxx10\startup_MK60D10.s
      At line 357 in file RTE\Device\MK60DN512xxx10\startup_MK60D10.s
      At line 358 in file RTE\Device\MK60DN512xxx10\startup_MK60D10.s
      At line 359 in file RTE\Device\MK60DN512xxx10\startup_MK60D10.s
      At line 360 in file RTE\Device\MK60DN512xxx10\startup_MK60D10.s
      At line 361 in file RTE\Device\MK60DN512xxx10\startup_MK60D10.s
      At line 362 in file RTE\Device\MK60DN512xxx10\startup_MK60D10.s
      At line 363 in file RTE\Device\MK60DN512xxx10\startup_MK60D10.s
      At line 364 in file RTE\Device\MK60DN512xxx10\startup_MK60D10.s
      At line 365 in file RTE\Device\MK60DN512xxx10\startup_MK60D10.s
      At line 366 in file RTE\Device\MK60DN512xxx10\startup_MK60D10.s
      At line 367 in file RTE\Device\MK60DN512xxx10\startup_MK60D10.s
      At line 368 in file RTE\Device\MK60DN512xxx10\startup_MK60D10.s
      At line 369 in file RTE\Device\MK60DN512xxx10\startup_MK60D10.s
      At line 697 in file RTE\Device\MK60DN512xxx10\startup_MK60D10.s

Default_Handler 0000001A

Symbol: Default_Handler
   Definitions
      At line 592 in file RTE\Device\MK60DN512xxx10\startup_MK60D10.s
   Uses
      None
Comment: Default_Handler unused
DisableInterrupts 0000001C

Symbol: DisableInterrupts
   Definitions
      At line 833 in file RTE\Device\MK60DN512xxx10\startup_MK60D10.s
   Uses
      At line 823 in file RTE\Device\MK60DN512xxx10\startup_MK60D10.s
Comment: DisableInterrupts used once
ENET_1588_Timer_IRQHandler 0000001A

Symbol: ENET_1588_Timer_IRQHandler
   Definitions
      At line 774 in file RTE\Device\MK60DN512xxx10\startup_MK60D10.s
   Uses
      At line 205 in file RTE\Device\MK60DN512xxx10\startup_MK60D10.s
      At line 668 in file RTE\Device\MK60DN512xxx10\startup_MK60D10.s

ENET_Error_IRQHandler 0000001A

Symbol: ENET_Error_IRQHandler



ARM Macro Assembler    Page 10 Alphabetic symbol ordering
Relocatable symbols

   Definitions
      At line 777 in file RTE\Device\MK60DN512xxx10\startup_MK60D10.s
   Uses
      At line 208 in file RTE\Device\MK60DN512xxx10\startup_MK60D10.s
      At line 671 in file RTE\Device\MK60DN512xxx10\startup_MK60D10.s

ENET_Receive_IRQHandler 0000001A

Symbol: ENET_Receive_IRQHandler
   Definitions
      At line 776 in file RTE\Device\MK60DN512xxx10\startup_MK60D10.s
   Uses
      At line 207 in file RTE\Device\MK60DN512xxx10\startup_MK60D10.s
      At line 670 in file RTE\Device\MK60DN512xxx10\startup_MK60D10.s

ENET_Transmit_IRQHandler 0000001A

Symbol: ENET_Transmit_IRQHandler
   Definitions
      At line 775 in file RTE\Device\MK60DN512xxx10\startup_MK60D10.s
   Uses
      At line 206 in file RTE\Device\MK60DN512xxx10\startup_MK60D10.s
      At line 669 in file RTE\Device\MK60DN512xxx10\startup_MK60D10.s

EnableInterrupts 00000020

Symbol: EnableInterrupts
   Definitions
      At line 841 in file RTE\Device\MK60DN512xxx10\startup_MK60D10.s
   Uses
      At line 824 in file RTE\Device\MK60DN512xxx10\startup_MK60D10.s
Comment: EnableInterrupts used once
EndCritical 0000002C

Symbol: EndCritical
   Definitions
      At line 858 in file RTE\Device\MK60DN512xxx10\startup_MK60D10.s
   Uses
      At line 826 in file RTE\Device\MK60DN512xxx10\startup_MK60D10.s
Comment: EndCritical used once
FTFL_IRQHandler 0000001A

Symbol: FTFL_IRQHandler
   Definitions
      At line 717 in file RTE\Device\MK60DN512xxx10\startup_MK60D10.s
   Uses
      At line 148 in file RTE\Device\MK60DN512xxx10\startup_MK60D10.s
      At line 611 in file RTE\Device\MK60DN512xxx10\startup_MK60D10.s

FTM0_IRQHandler 0000001A

Symbol: FTM0_IRQHandler
   Definitions
      At line 761 in file RTE\Device\MK60DN512xxx10\startup_MK60D10.s
   Uses
      At line 192 in file RTE\Device\MK60DN512xxx10\startup_MK60D10.s
      At line 655 in file RTE\Device\MK60DN512xxx10\startup_MK60D10.s

FTM1_IRQHandler 0000001A



ARM Macro Assembler    Page 11 Alphabetic symbol ordering
Relocatable symbols


Symbol: FTM1_IRQHandler
   Definitions
      At line 762 in file RTE\Device\MK60DN512xxx10\startup_MK60D10.s
   Uses
      At line 193 in file RTE\Device\MK60DN512xxx10\startup_MK60D10.s
      At line 656 in file RTE\Device\MK60DN512xxx10\startup_MK60D10.s

FTM2_IRQHandler 0000001A

Symbol: FTM2_IRQHandler
   Definitions
      At line 763 in file RTE\Device\MK60DN512xxx10\startup_MK60D10.s
   Uses
      At line 194 in file RTE\Device\MK60DN512xxx10\startup_MK60D10.s
      At line 657 in file RTE\Device\MK60DN512xxx10\startup_MK60D10.s

HardFault_Handler 0000000A

Symbol: HardFault_Handler
   Definitions
      At line 555 in file RTE\Device\MK60DN512xxx10\startup_MK60D10.s
   Uses
      At line 115 in file RTE\Device\MK60DN512xxx10\startup_MK60D10.s
      At line 556 in file RTE\Device\MK60DN512xxx10\startup_MK60D10.s

I2C0_IRQHandler 0000001A

Symbol: I2C0_IRQHandler
   Definitions
      At line 723 in file RTE\Device\MK60DN512xxx10\startup_MK60D10.s
   Uses
      At line 154 in file RTE\Device\MK60DN512xxx10\startup_MK60D10.s
      At line 617 in file RTE\Device\MK60DN512xxx10\startup_MK60D10.s

I2C1_IRQHandler 0000001A

Symbol: I2C1_IRQHandler
   Definitions
      At line 724 in file RTE\Device\MK60DN512xxx10\startup_MK60D10.s
   Uses
      At line 155 in file RTE\Device\MK60DN512xxx10\startup_MK60D10.s
      At line 618 in file RTE\Device\MK60DN512xxx10\startup_MK60D10.s

I2S0_Rx_IRQHandler 0000001A

Symbol: I2S0_Rx_IRQHandler
   Definitions
      At line 735 in file RTE\Device\MK60DN512xxx10\startup_MK60D10.s
   Uses
      At line 166 in file RTE\Device\MK60DN512xxx10\startup_MK60D10.s
      At line 629 in file RTE\Device\MK60DN512xxx10\startup_MK60D10.s

I2S0_Tx_IRQHandler 0000001A

Symbol: I2S0_Tx_IRQHandler
   Definitions
      At line 734 in file RTE\Device\MK60DN512xxx10\startup_MK60D10.s
   Uses



ARM Macro Assembler    Page 12 Alphabetic symbol ordering
Relocatable symbols

      At line 165 in file RTE\Device\MK60DN512xxx10\startup_MK60D10.s
      At line 628 in file RTE\Device\MK60DN512xxx10\startup_MK60D10.s

LLW_IRQHandler 0000001A

Symbol: LLW_IRQHandler
   Definitions
      At line 720 in file RTE\Device\MK60DN512xxx10\startup_MK60D10.s
   Uses
      At line 151 in file RTE\Device\MK60DN512xxx10\startup_MK60D10.s
      At line 614 in file RTE\Device\MK60DN512xxx10\startup_MK60D10.s

LPTimer_IRQHandler 0000001A

Symbol: LPTimer_IRQHandler
   Definitions
      At line 784 in file RTE\Device\MK60DN512xxx10\startup_MK60D10.s
   Uses
      At line 215 in file RTE\Device\MK60DN512xxx10\startup_MK60D10.s
      At line 678 in file RTE\Device\MK60DN512xxx10\startup_MK60D10.s

LVD_LVW_IRQHandler 0000001A

Symbol: LVD_LVW_IRQHandler
   Definitions
      At line 719 in file RTE\Device\MK60DN512xxx10\startup_MK60D10.s
   Uses
      At line 150 in file RTE\Device\MK60DN512xxx10\startup_MK60D10.s
      At line 613 in file RTE\Device\MK60DN512xxx10\startup_MK60D10.s

MCG_IRQHandler 0000001A

Symbol: MCG_IRQHandler
   Definitions
      At line 783 in file RTE\Device\MK60DN512xxx10\startup_MK60D10.s
   Uses
      At line 214 in file RTE\Device\MK60DN512xxx10\startup_MK60D10.s
      At line 677 in file RTE\Device\MK60DN512xxx10\startup_MK60D10.s

MCM_IRQHandler 0000001A

Symbol: MCM_IRQHandler
   Definitions
      At line 716 in file RTE\Device\MK60DN512xxx10\startup_MK60D10.s
   Uses
      At line 147 in file RTE\Device\MK60DN512xxx10\startup_MK60D10.s
      At line 610 in file RTE\Device\MK60DN512xxx10\startup_MK60D10.s

MemManage_Handler 0000000C

Symbol: MemManage_Handler
   Definitions
      At line 560 in file RTE\Device\MK60DN512xxx10\startup_MK60D10.s
   Uses
      At line 116 in file RTE\Device\MK60DN512xxx10\startup_MK60D10.s
      At line 561 in file RTE\Device\MK60DN512xxx10\startup_MK60D10.s

NMI_Handler 00000008




ARM Macro Assembler    Page 13 Alphabetic symbol ordering
Relocatable symbols

Symbol: NMI_Handler
   Definitions
      At line 550 in file RTE\Device\MK60DN512xxx10\startup_MK60D10.s
   Uses
      At line 114 in file RTE\Device\MK60DN512xxx10\startup_MK60D10.s
      At line 551 in file RTE\Device\MK60DN512xxx10\startup_MK60D10.s

PDB0_IRQHandler 0000001A

Symbol: PDB0_IRQHandler
   Definitions
      At line 771 in file RTE\Device\MK60DN512xxx10\startup_MK60D10.s
   Uses
      At line 202 in file RTE\Device\MK60DN512xxx10\startup_MK60D10.s
      At line 665 in file RTE\Device\MK60DN512xxx10\startup_MK60D10.s

PIT0_IRQHandler 0000001A

Symbol: PIT0_IRQHandler
   Definitions
      At line 767 in file RTE\Device\MK60DN512xxx10\startup_MK60D10.s
   Uses
      At line 198 in file RTE\Device\MK60DN512xxx10\startup_MK60D10.s
      At line 661 in file RTE\Device\MK60DN512xxx10\startup_MK60D10.s

PIT1_IRQHandler 0000001A

Symbol: PIT1_IRQHandler
   Definitions
      At line 768 in file RTE\Device\MK60DN512xxx10\startup_MK60D10.s
   Uses
      At line 199 in file RTE\Device\MK60DN512xxx10\startup_MK60D10.s
      At line 662 in file RTE\Device\MK60DN512xxx10\startup_MK60D10.s

PIT2_IRQHandler 0000001A

Symbol: PIT2_IRQHandler
   Definitions
      At line 769 in file RTE\Device\MK60DN512xxx10\startup_MK60D10.s
   Uses
      At line 200 in file RTE\Device\MK60DN512xxx10\startup_MK60D10.s
      At line 663 in file RTE\Device\MK60DN512xxx10\startup_MK60D10.s

PIT3_IRQHandler 0000001A

Symbol: PIT3_IRQHandler
   Definitions
      At line 770 in file RTE\Device\MK60DN512xxx10\startup_MK60D10.s
   Uses
      At line 201 in file RTE\Device\MK60DN512xxx10\startup_MK60D10.s
      At line 664 in file RTE\Device\MK60DN512xxx10\startup_MK60D10.s

PORTA_IRQHandler 0000001A

Symbol: PORTA_IRQHandler
   Definitions
      At line 786 in file RTE\Device\MK60DN512xxx10\startup_MK60D10.s
   Uses
      At line 217 in file RTE\Device\MK60DN512xxx10\startup_MK60D10.s



ARM Macro Assembler    Page 14 Alphabetic symbol ordering
Relocatable symbols

      At line 680 in file RTE\Device\MK60DN512xxx10\startup_MK60D10.s

PORTB_IRQHandler 0000001A

Symbol: PORTB_IRQHandler
   Definitions
      At line 787 in file RTE\Device\MK60DN512xxx10\startup_MK60D10.s
   Uses
      At line 218 in file RTE\Device\MK60DN512xxx10\startup_MK60D10.s
      At line 681 in file RTE\Device\MK60DN512xxx10\startup_MK60D10.s

PORTC_IRQHandler 0000001A

Symbol: PORTC_IRQHandler
   Definitions
      At line 788 in file RTE\Device\MK60DN512xxx10\startup_MK60D10.s
   Uses
      At line 219 in file RTE\Device\MK60DN512xxx10\startup_MK60D10.s
      At line 682 in file RTE\Device\MK60DN512xxx10\startup_MK60D10.s

PORTD_IRQHandler 0000001A

Symbol: PORTD_IRQHandler
   Definitions
      At line 789 in file RTE\Device\MK60DN512xxx10\startup_MK60D10.s
   Uses
      At line 220 in file RTE\Device\MK60DN512xxx10\startup_MK60D10.s
      At line 683 in file RTE\Device\MK60DN512xxx10\startup_MK60D10.s

PORTE_IRQHandler 0000001A

Symbol: PORTE_IRQHandler
   Definitions
      At line 790 in file RTE\Device\MK60DN512xxx10\startup_MK60D10.s
   Uses
      At line 221 in file RTE\Device\MK60DN512xxx10\startup_MK60D10.s
      At line 684 in file RTE\Device\MK60DN512xxx10\startup_MK60D10.s

PendSV_Handler 00000016

Symbol: PendSV_Handler
   Definitions
      At line 583 in file RTE\Device\MK60DN512xxx10\startup_MK60D10.s
   Uses
      At line 126 in file RTE\Device\MK60DN512xxx10\startup_MK60D10.s
      At line 584 in file RTE\Device\MK60DN512xxx10\startup_MK60D10.s

RNG_IRQHandler 0000001A

Symbol: RNG_IRQHandler
   Definitions
      At line 722 in file RTE\Device\MK60DN512xxx10\startup_MK60D10.s
   Uses
      At line 153 in file RTE\Device\MK60DN512xxx10\startup_MK60D10.s
      At line 616 in file RTE\Device\MK60DN512xxx10\startup_MK60D10.s

RTC_IRQHandler 0000001A

Symbol: RTC_IRQHandler



ARM Macro Assembler    Page 15 Alphabetic symbol ordering
Relocatable symbols

   Definitions
      At line 765 in file RTE\Device\MK60DN512xxx10\startup_MK60D10.s
   Uses
      At line 196 in file RTE\Device\MK60DN512xxx10\startup_MK60D10.s
      At line 659 in file RTE\Device\MK60DN512xxx10\startup_MK60D10.s

RTC_Seconds_IRQHandler 0000001A

Symbol: RTC_Seconds_IRQHandler
   Definitions
      At line 766 in file RTE\Device\MK60DN512xxx10\startup_MK60D10.s
   Uses
      At line 197 in file RTE\Device\MK60DN512xxx10\startup_MK60D10.s
      At line 660 in file RTE\Device\MK60DN512xxx10\startup_MK60D10.s

Read_Collision_IRQHandler 0000001A

Symbol: Read_Collision_IRQHandler
   Definitions
      At line 718 in file RTE\Device\MK60DN512xxx10\startup_MK60D10.s
   Uses
      At line 149 in file RTE\Device\MK60DN512xxx10\startup_MK60D10.s
      At line 612 in file RTE\Device\MK60DN512xxx10\startup_MK60D10.s

Reserved102_IRQHandler 0000001A

Symbol: Reserved102_IRQHandler
   Definitions
      At line 785 in file RTE\Device\MK60DN512xxx10\startup_MK60D10.s
   Uses
      At line 216 in file RTE\Device\MK60DN512xxx10\startup_MK60D10.s
      At line 679 in file RTE\Device\MK60DN512xxx10\startup_MK60D10.s

Reserved108_IRQHandler 0000001A

Symbol: Reserved108_IRQHandler
   Definitions
      At line 791 in file RTE\Device\MK60DN512xxx10\startup_MK60D10.s
   Uses
      At line 222 in file RTE\Device\MK60DN512xxx10\startup_MK60D10.s
      At line 685 in file RTE\Device\MK60DN512xxx10\startup_MK60D10.s

Reserved109_IRQHandler 0000001A

Symbol: Reserved109_IRQHandler
   Definitions
      At line 792 in file RTE\Device\MK60DN512xxx10\startup_MK60D10.s
   Uses
      At line 223 in file RTE\Device\MK60DN512xxx10\startup_MK60D10.s
      At line 686 in file RTE\Device\MK60DN512xxx10\startup_MK60D10.s

Reserved111_IRQHandler 0000001A

Symbol: Reserved111_IRQHandler
   Definitions
      At line 794 in file RTE\Device\MK60DN512xxx10\startup_MK60D10.s
   Uses
      At line 225 in file RTE\Device\MK60DN512xxx10\startup_MK60D10.s
      At line 688 in file RTE\Device\MK60DN512xxx10\startup_MK60D10.s



ARM Macro Assembler    Page 16 Alphabetic symbol ordering
Relocatable symbols


Reserved112_IRQHandler 0000001A

Symbol: Reserved112_IRQHandler
   Definitions
      At line 795 in file RTE\Device\MK60DN512xxx10\startup_MK60D10.s
   Uses
      At line 226 in file RTE\Device\MK60DN512xxx10\startup_MK60D10.s
      At line 689 in file RTE\Device\MK60DN512xxx10\startup_MK60D10.s

Reserved113_IRQHandler 0000001A

Symbol: Reserved113_IRQHandler
   Definitions
      At line 796 in file RTE\Device\MK60DN512xxx10\startup_MK60D10.s
   Uses
      At line 227 in file RTE\Device\MK60DN512xxx10\startup_MK60D10.s
      At line 690 in file RTE\Device\MK60DN512xxx10\startup_MK60D10.s

Reserved114_IRQHandler 0000001A

Symbol: Reserved114_IRQHandler
   Definitions
      At line 797 in file RTE\Device\MK60DN512xxx10\startup_MK60D10.s
   Uses
      At line 228 in file RTE\Device\MK60DN512xxx10\startup_MK60D10.s
      At line 691 in file RTE\Device\MK60DN512xxx10\startup_MK60D10.s

Reserved115_IRQHandler 0000001A

Symbol: Reserved115_IRQHandler
   Definitions
      At line 798 in file RTE\Device\MK60DN512xxx10\startup_MK60D10.s
   Uses
      At line 229 in file RTE\Device\MK60DN512xxx10\startup_MK60D10.s
      At line 692 in file RTE\Device\MK60DN512xxx10\startup_MK60D10.s

Reserved116_IRQHandler 0000001A

Symbol: Reserved116_IRQHandler
   Definitions
      At line 799 in file RTE\Device\MK60DN512xxx10\startup_MK60D10.s
   Uses
      At line 230 in file RTE\Device\MK60DN512xxx10\startup_MK60D10.s
      At line 693 in file RTE\Device\MK60DN512xxx10\startup_MK60D10.s

Reserved117_IRQHandler 0000001A

Symbol: Reserved117_IRQHandler
   Definitions
      At line 800 in file RTE\Device\MK60DN512xxx10\startup_MK60D10.s
   Uses
      At line 231 in file RTE\Device\MK60DN512xxx10\startup_MK60D10.s
      At line 694 in file RTE\Device\MK60DN512xxx10\startup_MK60D10.s

Reserved118_IRQHandler 0000001A

Symbol: Reserved118_IRQHandler
   Definitions



ARM Macro Assembler    Page 17 Alphabetic symbol ordering
Relocatable symbols

      At line 801 in file RTE\Device\MK60DN512xxx10\startup_MK60D10.s
   Uses
      At line 232 in file RTE\Device\MK60DN512xxx10\startup_MK60D10.s
      At line 695 in file RTE\Device\MK60DN512xxx10\startup_MK60D10.s

Reserved119_IRQHandler 0000001A

Symbol: Reserved119_IRQHandler
   Definitions
      At line 802 in file RTE\Device\MK60DN512xxx10\startup_MK60D10.s
   Uses
      At line 233 in file RTE\Device\MK60DN512xxx10\startup_MK60D10.s
      At line 696 in file RTE\Device\MK60DN512xxx10\startup_MK60D10.s

Reserved59_IRQHandler 0000001A

Symbol: Reserved59_IRQHandler
   Definitions
      At line 742 in file RTE\Device\MK60DN512xxx10\startup_MK60D10.s
   Uses
      At line 173 in file RTE\Device\MK60DN512xxx10\startup_MK60D10.s
      At line 636 in file RTE\Device\MK60DN512xxx10\startup_MK60D10.s

Reserved95_IRQHandler 0000001A

Symbol: Reserved95_IRQHandler
   Definitions
      At line 778 in file RTE\Device\MK60DN512xxx10\startup_MK60D10.s
   Uses
      At line 209 in file RTE\Device\MK60DN512xxx10\startup_MK60D10.s
      At line 672 in file RTE\Device\MK60DN512xxx10\startup_MK60D10.s

Reset_Handler 00000000

Symbol: Reset_Handler
   Definitions
      At line 537 in file RTE\Device\MK60DN512xxx10\startup_MK60D10.s
   Uses
      At line 113 in file RTE\Device\MK60DN512xxx10\startup_MK60D10.s
      At line 538 in file RTE\Device\MK60DN512xxx10\startup_MK60D10.s

SDHC_IRQHandler 0000001A

Symbol: SDHC_IRQHandler
   Definitions
      At line 779 in file RTE\Device\MK60DN512xxx10\startup_MK60D10.s
   Uses
      At line 210 in file RTE\Device\MK60DN512xxx10\startup_MK60D10.s
      At line 673 in file RTE\Device\MK60DN512xxx10\startup_MK60D10.s

SPI0_IRQHandler 0000001A

Symbol: SPI0_IRQHandler
   Definitions
      At line 725 in file RTE\Device\MK60DN512xxx10\startup_MK60D10.s
   Uses
      At line 156 in file RTE\Device\MK60DN512xxx10\startup_MK60D10.s
      At line 619 in file RTE\Device\MK60DN512xxx10\startup_MK60D10.s




ARM Macro Assembler    Page 18 Alphabetic symbol ordering
Relocatable symbols

SPI1_IRQHandler 0000001A

Symbol: SPI1_IRQHandler
   Definitions
      At line 726 in file RTE\Device\MK60DN512xxx10\startup_MK60D10.s
   Uses
      At line 157 in file RTE\Device\MK60DN512xxx10\startup_MK60D10.s
      At line 620 in file RTE\Device\MK60DN512xxx10\startup_MK60D10.s

SPI2_IRQHandler 0000001A

Symbol: SPI2_IRQHandler
   Definitions
      At line 727 in file RTE\Device\MK60DN512xxx10\startup_MK60D10.s
   Uses
      At line 158 in file RTE\Device\MK60DN512xxx10\startup_MK60D10.s
      At line 621 in file RTE\Device\MK60DN512xxx10\startup_MK60D10.s

SVC_Handler 00000012

Symbol: SVC_Handler
   Definitions
      At line 574 in file RTE\Device\MK60DN512xxx10\startup_MK60D10.s
   Uses
      At line 123 in file RTE\Device\MK60DN512xxx10\startup_MK60D10.s
      At line 575 in file RTE\Device\MK60DN512xxx10\startup_MK60D10.s

SWI_IRQHandler 0000001A

Symbol: SWI_IRQHandler
   Definitions
      At line 793 in file RTE\Device\MK60DN512xxx10\startup_MK60D10.s
   Uses
      At line 224 in file RTE\Device\MK60DN512xxx10\startup_MK60D10.s
      At line 687 in file RTE\Device\MK60DN512xxx10\startup_MK60D10.s

StartCritical 00000024

Symbol: StartCritical
   Definitions
      At line 849 in file RTE\Device\MK60DN512xxx10\startup_MK60D10.s
   Uses
      At line 825 in file RTE\Device\MK60DN512xxx10\startup_MK60D10.s
Comment: StartCritical used once
SysTick_Handler 00000018

Symbol: SysTick_Handler
   Definitions
      At line 587 in file RTE\Device\MK60DN512xxx10\startup_MK60D10.s
   Uses
      At line 127 in file RTE\Device\MK60DN512xxx10\startup_MK60D10.s
      At line 588 in file RTE\Device\MK60DN512xxx10\startup_MK60D10.s

TSI0_IRQHandler 0000001A

Symbol: TSI0_IRQHandler
   Definitions
      At line 782 in file RTE\Device\MK60DN512xxx10\startup_MK60D10.s
   Uses



ARM Macro Assembler    Page 19 Alphabetic symbol ordering
Relocatable symbols

      At line 213 in file RTE\Device\MK60DN512xxx10\startup_MK60D10.s
      At line 676 in file RTE\Device\MK60DN512xxx10\startup_MK60D10.s

UART0_ERR_IRQHandler 0000001A

Symbol: UART0_ERR_IRQHandler
   Definitions
      At line 745 in file RTE\Device\MK60DN512xxx10\startup_MK60D10.s
   Uses
      At line 176 in file RTE\Device\MK60DN512xxx10\startup_MK60D10.s
      At line 639 in file RTE\Device\MK60DN512xxx10\startup_MK60D10.s

UART0_LON_IRQHandler 0000001A

Symbol: UART0_LON_IRQHandler
   Definitions
      At line 743 in file RTE\Device\MK60DN512xxx10\startup_MK60D10.s
   Uses
      At line 174 in file RTE\Device\MK60DN512xxx10\startup_MK60D10.s
      At line 637 in file RTE\Device\MK60DN512xxx10\startup_MK60D10.s

UART0_RX_TX_IRQHandler 0000001A

Symbol: UART0_RX_TX_IRQHandler
   Definitions
      At line 744 in file RTE\Device\MK60DN512xxx10\startup_MK60D10.s
   Uses
      At line 175 in file RTE\Device\MK60DN512xxx10\startup_MK60D10.s
      At line 638 in file RTE\Device\MK60DN512xxx10\startup_MK60D10.s

UART1_ERR_IRQHandler 0000001A

Symbol: UART1_ERR_IRQHandler
   Definitions
      At line 747 in file RTE\Device\MK60DN512xxx10\startup_MK60D10.s
   Uses
      At line 178 in file RTE\Device\MK60DN512xxx10\startup_MK60D10.s
      At line 641 in file RTE\Device\MK60DN512xxx10\startup_MK60D10.s

UART1_RX_TX_IRQHandler 0000001A

Symbol: UART1_RX_TX_IRQHandler
   Definitions
      At line 746 in file RTE\Device\MK60DN512xxx10\startup_MK60D10.s
   Uses
      At line 177 in file RTE\Device\MK60DN512xxx10\startup_MK60D10.s
      At line 640 in file RTE\Device\MK60DN512xxx10\startup_MK60D10.s

UART2_ERR_IRQHandler 0000001A

Symbol: UART2_ERR_IRQHandler
   Definitions
      At line 749 in file RTE\Device\MK60DN512xxx10\startup_MK60D10.s
   Uses
      At line 180 in file RTE\Device\MK60DN512xxx10\startup_MK60D10.s
      At line 643 in file RTE\Device\MK60DN512xxx10\startup_MK60D10.s

UART2_RX_TX_IRQHandler 0000001A




ARM Macro Assembler    Page 20 Alphabetic symbol ordering
Relocatable symbols

Symbol: UART2_RX_TX_IRQHandler
   Definitions
      At line 748 in file RTE\Device\MK60DN512xxx10\startup_MK60D10.s
   Uses
      At line 179 in file RTE\Device\MK60DN512xxx10\startup_MK60D10.s
      At line 642 in file RTE\Device\MK60DN512xxx10\startup_MK60D10.s

UART3_ERR_IRQHandler 0000001A

Symbol: UART3_ERR_IRQHandler
   Definitions
      At line 751 in file RTE\Device\MK60DN512xxx10\startup_MK60D10.s
   Uses
      At line 182 in file RTE\Device\MK60DN512xxx10\startup_MK60D10.s
      At line 645 in file RTE\Device\MK60DN512xxx10\startup_MK60D10.s

UART3_RX_TX_IRQHandler 0000001A

Symbol: UART3_RX_TX_IRQHandler
   Definitions
      At line 750 in file RTE\Device\MK60DN512xxx10\startup_MK60D10.s
   Uses
      At line 181 in file RTE\Device\MK60DN512xxx10\startup_MK60D10.s
      At line 644 in file RTE\Device\MK60DN512xxx10\startup_MK60D10.s

UART4_ERR_IRQHandler 0000001A

Symbol: UART4_ERR_IRQHandler
   Definitions
      At line 753 in file RTE\Device\MK60DN512xxx10\startup_MK60D10.s
   Uses
      At line 184 in file RTE\Device\MK60DN512xxx10\startup_MK60D10.s
      At line 647 in file RTE\Device\MK60DN512xxx10\startup_MK60D10.s

UART4_RX_TX_IRQHandler 0000001A

Symbol: UART4_RX_TX_IRQHandler
   Definitions
      At line 752 in file RTE\Device\MK60DN512xxx10\startup_MK60D10.s
   Uses
      At line 183 in file RTE\Device\MK60DN512xxx10\startup_MK60D10.s
      At line 646 in file RTE\Device\MK60DN512xxx10\startup_MK60D10.s

UART5_ERR_IRQHandler 0000001A

Symbol: UART5_ERR_IRQHandler
   Definitions
      At line 755 in file RTE\Device\MK60DN512xxx10\startup_MK60D10.s
   Uses
      At line 186 in file RTE\Device\MK60DN512xxx10\startup_MK60D10.s
      At line 649 in file RTE\Device\MK60DN512xxx10\startup_MK60D10.s

UART5_RX_TX_IRQHandler 0000001A

Symbol: UART5_RX_TX_IRQHandler
   Definitions
      At line 754 in file RTE\Device\MK60DN512xxx10\startup_MK60D10.s
   Uses
      At line 185 in file RTE\Device\MK60DN512xxx10\startup_MK60D10.s



ARM Macro Assembler    Page 21 Alphabetic symbol ordering
Relocatable symbols

      At line 648 in file RTE\Device\MK60DN512xxx10\startup_MK60D10.s

USB0_IRQHandler 0000001A

Symbol: USB0_IRQHandler
   Definitions
      At line 772 in file RTE\Device\MK60DN512xxx10\startup_MK60D10.s
   Uses
      At line 203 in file RTE\Device\MK60DN512xxx10\startup_MK60D10.s
      At line 666 in file RTE\Device\MK60DN512xxx10\startup_MK60D10.s

USBDCD_IRQHandler 0000001A

Symbol: USBDCD_IRQHandler
   Definitions
      At line 773 in file RTE\Device\MK60DN512xxx10\startup_MK60D10.s
   Uses
      At line 204 in file RTE\Device\MK60DN512xxx10\startup_MK60D10.s
      At line 667 in file RTE\Device\MK60DN512xxx10\startup_MK60D10.s

UsageFault_Handler 00000010

Symbol: UsageFault_Handler
   Definitions
      At line 570 in file RTE\Device\MK60DN512xxx10\startup_MK60D10.s
   Uses
      At line 118 in file RTE\Device\MK60DN512xxx10\startup_MK60D10.s
      At line 571 in file RTE\Device\MK60DN512xxx10\startup_MK60D10.s

WaitForInterrupt 00000032

Symbol: WaitForInterrupt
   Definitions
      At line 866 in file RTE\Device\MK60DN512xxx10\startup_MK60D10.s
   Uses
      At line 827 in file RTE\Device\MK60DN512xxx10\startup_MK60D10.s
Comment: WaitForInterrupt used once
Watchdog_IRQHandler 0000001A

Symbol: Watchdog_IRQHandler
   Definitions
      At line 721 in file RTE\Device\MK60DN512xxx10\startup_MK60D10.s
   Uses
      At line 152 in file RTE\Device\MK60DN512xxx10\startup_MK60D10.s
      At line 615 in file RTE\Device\MK60DN512xxx10\startup_MK60D10.s

__user_initial_stackheap 00000036

Symbol: __user_initial_stackheap
   Definitions
      At line 892 in file RTE\Device\MK60DN512xxx10\startup_MK60D10.s
   Uses
      At line 891 in file RTE\Device\MK60DN512xxx10\startup_MK60D10.s
Comment: __user_initial_stackheap used once
123 symbols



ARM Macro Assembler    Page 1 Alphabetic symbol ordering
Absolute symbols

BackDoorK0 000000FF

Symbol: BackDoorK0
   Definitions
      At line 386 in file RTE\Device\MK60DN512xxx10\startup_MK60D10.s
   Uses
      At line 521 in file RTE\Device\MK60DN512xxx10\startup_MK60D10.s
Comment: BackDoorK0 used once
BackDoorK1 000000FF

Symbol: BackDoorK1
   Definitions
      At line 387 in file RTE\Device\MK60DN512xxx10\startup_MK60D10.s
   Uses
      At line 521 in file RTE\Device\MK60DN512xxx10\startup_MK60D10.s
Comment: BackDoorK1 used once
BackDoorK2 000000FF

Symbol: BackDoorK2
   Definitions
      At line 388 in file RTE\Device\MK60DN512xxx10\startup_MK60D10.s
   Uses
      At line 521 in file RTE\Device\MK60DN512xxx10\startup_MK60D10.s
Comment: BackDoorK2 used once
BackDoorK3 000000FF

Symbol: BackDoorK3
   Definitions
      At line 389 in file RTE\Device\MK60DN512xxx10\startup_MK60D10.s
   Uses
      At line 521 in file RTE\Device\MK60DN512xxx10\startup_MK60D10.s
Comment: BackDoorK3 used once
BackDoorK4 000000FF

Symbol: BackDoorK4
   Definitions
      At line 390 in file RTE\Device\MK60DN512xxx10\startup_MK60D10.s
   Uses
      At line 522 in file RTE\Device\MK60DN512xxx10\startup_MK60D10.s
Comment: BackDoorK4 used once
BackDoorK5 000000FF

Symbol: BackDoorK5
   Definitions
      At line 391 in file RTE\Device\MK60DN512xxx10\startup_MK60D10.s
   Uses
      At line 522 in file RTE\Device\MK60DN512xxx10\startup_MK60D10.s
Comment: BackDoorK5 used once
BackDoorK6 000000FF

Symbol: BackDoorK6
   Definitions
      At line 392 in file RTE\Device\MK60DN512xxx10\startup_MK60D10.s
   Uses
      At line 522 in file RTE\Device\MK60DN512xxx10\startup_MK60D10.s
Comment: BackDoorK6 used once
BackDoorK7 000000FF

Symbol: BackDoorK7



ARM Macro Assembler    Page 2 Alphabetic symbol ordering
Absolute symbols

   Definitions
      At line 393 in file RTE\Device\MK60DN512xxx10\startup_MK60D10.s
   Uses
      At line 522 in file RTE\Device\MK60DN512xxx10\startup_MK60D10.s
Comment: BackDoorK7 used once
FDPROT 000000FF

Symbol: FDPROT
   Definitions
      At line 467 in file RTE\Device\MK60DN512xxx10\startup_MK60D10.s
   Uses
      At line 524 in file RTE\Device\MK60DN512xxx10\startup_MK60D10.s
Comment: FDPROT used once
FEPROT 000000FF

Symbol: FEPROT
   Definitions
      At line 481 in file RTE\Device\MK60DN512xxx10\startup_MK60D10.s
   Uses
      At line 524 in file RTE\Device\MK60DN512xxx10\startup_MK60D10.s
Comment: FEPROT used once
FOPT 000000FF

Symbol: FOPT
   Definitions
      At line 491 in file RTE\Device\MK60DN512xxx10\startup_MK60D10.s
   Uses
      At line 524 in file RTE\Device\MK60DN512xxx10\startup_MK60D10.s
Comment: FOPT used once
FPROT0 000000FF

Symbol: FPROT0
   Definitions
      At line 410 in file RTE\Device\MK60DN512xxx10\startup_MK60D10.s
   Uses
      At line 523 in file RTE\Device\MK60DN512xxx10\startup_MK60D10.s
Comment: FPROT0 used once
FPROT1 000000FF

Symbol: FPROT1
   Definitions
      At line 424 in file RTE\Device\MK60DN512xxx10\startup_MK60D10.s
   Uses
      At line 523 in file RTE\Device\MK60DN512xxx10\startup_MK60D10.s
Comment: FPROT1 used once
FPROT2 000000FF

Symbol: FPROT2
   Definitions
      At line 438 in file RTE\Device\MK60DN512xxx10\startup_MK60D10.s
   Uses
      At line 523 in file RTE\Device\MK60DN512xxx10\startup_MK60D10.s
Comment: FPROT2 used once
FPROT3 000000FF

Symbol: FPROT3
   Definitions
      At line 452 in file RTE\Device\MK60DN512xxx10\startup_MK60D10.s
   Uses



ARM Macro Assembler    Page 3 Alphabetic symbol ordering
Absolute symbols

      At line 523 in file RTE\Device\MK60DN512xxx10\startup_MK60D10.s
Comment: FPROT3 used once
FSEC 000000FE

Symbol: FSEC
   Definitions
      At line 516 in file RTE\Device\MK60DN512xxx10\startup_MK60D10.s
   Uses
      At line 524 in file RTE\Device\MK60DN512xxx10\startup_MK60D10.s
Comment: FSEC used once
Heap_Size 00000000

Symbol: Heap_Size
   Definitions
      At line 68 in file RTE\Device\MK60DN512xxx10\startup_MK60D10.s
   Uses
      At line 78 in file RTE\Device\MK60DN512xxx10\startup_MK60D10.s
      At line 896 in file RTE\Device\MK60DN512xxx10\startup_MK60D10.s

Stack_Size 00000400

Symbol: Stack_Size
   Definitions
      At line 23 in file RTE\Device\MK60DN512xxx10\startup_MK60D10.s
   Uses
      At line 56 in file RTE\Device\MK60DN512xxx10\startup_MK60D10.s
      At line 895 in file RTE\Device\MK60DN512xxx10\startup_MK60D10.s

__Vectors_Size 00000400

Symbol: __Vectors_Size
   Definitions
      At line 372 in file RTE\Device\MK60DN512xxx10\startup_MK60D10.s
   Uses
      At line 110 in file RTE\Device\MK60DN512xxx10\startup_MK60D10.s
Comment: __Vectors_Size used once
nFDPROT 00000000

Symbol: nFDPROT
   Definitions
      At line 466 in file RTE\Device\MK60DN512xxx10\startup_MK60D10.s
   Uses
      At line 467 in file RTE\Device\MK60DN512xxx10\startup_MK60D10.s
Comment: nFDPROT used once
nFEPROT 00000000

Symbol: nFEPROT
   Definitions
      At line 480 in file RTE\Device\MK60DN512xxx10\startup_MK60D10.s
   Uses
      At line 481 in file RTE\Device\MK60DN512xxx10\startup_MK60D10.s
Comment: nFEPROT used once
nFPROT0 00000000

Symbol: nFPROT0
   Definitions
      At line 409 in file RTE\Device\MK60DN512xxx10\startup_MK60D10.s
   Uses
      At line 410 in file RTE\Device\MK60DN512xxx10\startup_MK60D10.s



ARM Macro Assembler    Page 4 Alphabetic symbol ordering
Absolute symbols

Comment: nFPROT0 used once
nFPROT1 00000000

Symbol: nFPROT1
   Definitions
      At line 423 in file RTE\Device\MK60DN512xxx10\startup_MK60D10.s
   Uses
      At line 424 in file RTE\Device\MK60DN512xxx10\startup_MK60D10.s
Comment: nFPROT1 used once
nFPROT2 00000000

Symbol: nFPROT2
   Definitions
      At line 437 in file RTE\Device\MK60DN512xxx10\startup_MK60D10.s
   Uses
      At line 438 in file RTE\Device\MK60DN512xxx10\startup_MK60D10.s
Comment: nFPROT2 used once
nFPROT3 00000000

Symbol: nFPROT3
   Definitions
      At line 451 in file RTE\Device\MK60DN512xxx10\startup_MK60D10.s
   Uses
      At line 452 in file RTE\Device\MK60DN512xxx10\startup_MK60D10.s
Comment: nFPROT3 used once
25 symbols



ARM Macro Assembler    Page 1 Alphabetic symbol ordering
External symbols

SystemInit 00000000

Symbol: SystemInit
   Definitions
      At line 539 in file RTE\Device\MK60DN512xxx10\startup_MK60D10.s
   Uses
      At line 541 in file RTE\Device\MK60DN512xxx10\startup_MK60D10.s
Comment: SystemInit used once
__main 00000000

Symbol: __main
   Definitions
      At line 540 in file RTE\Device\MK60DN512xxx10\startup_MK60D10.s
   Uses
      At line 543 in file RTE\Device\MK60DN512xxx10\startup_MK60D10.s
Comment: __main used once
__use_two_region_memory 00000000

Symbol: __use_two_region_memory
   Definitions
      At line 890 in file RTE\Device\MK60DN512xxx10\startup_MK60D10.s
   Uses
      None
Comment: __use_two_region_memory unused
3 symbols
502 symbols in table
